
Distance_sensor.elf:     file format elf32-avr

Sections:
Idx Name          Size      VMA       LMA       File off  Algn
  0 .data         0000002c  00800100  00001e3a  00001ece  2**0
                  CONTENTS, ALLOC, LOAD, DATA
  1 .text         00001e3a  00000000  00000000  00000094  2**1
                  CONTENTS, ALLOC, LOAD, READONLY, CODE
  2 .bss          000000d8  0080012c  0080012c  00001efa  2**0
                  ALLOC
  3 .comment      0000005c  00000000  00000000  00001efa  2**0
                  CONTENTS, READONLY
  4 .note.gnu.avr.deviceinfo 0000003c  00000000  00000000  00001f58  2**2
                  CONTENTS, READONLY
  5 .debug_aranges 00000020  00000000  00000000  00001f98  2**3
                  CONTENTS, READONLY, DEBUGGING
  6 .debug_info   00000683  00000000  00000000  00001fb8  2**0
                  CONTENTS, READONLY, DEBUGGING
  7 .debug_abbrev 000005b6  00000000  00000000  0000263b  2**0
                  CONTENTS, READONLY, DEBUGGING
  8 .debug_line   000002ed  00000000  00000000  00002bf1  2**0
                  CONTENTS, READONLY, DEBUGGING
  9 .debug_str    00000208  00000000  00000000  00002ede  2**0
                  CONTENTS, READONLY, DEBUGGING

Disassembly of section .text:

00000000 <__vectors>:
       0:	0c 94 fa 03 	jmp	0x7f4	; 0x7f4 <__ctors_end>
       4:	0c 94 35 05 	jmp	0xa6a	; 0xa6a <__vector_1>
       8:	0c 94 17 04 	jmp	0x82e	; 0x82e <__bad_interrupt>
       c:	0c 94 17 04 	jmp	0x82e	; 0x82e <__bad_interrupt>
      10:	0c 94 17 04 	jmp	0x82e	; 0x82e <__bad_interrupt>
      14:	0c 94 17 04 	jmp	0x82e	; 0x82e <__bad_interrupt>
      18:	0c 94 17 04 	jmp	0x82e	; 0x82e <__bad_interrupt>
      1c:	0c 94 17 04 	jmp	0x82e	; 0x82e <__bad_interrupt>
      20:	0c 94 17 04 	jmp	0x82e	; 0x82e <__bad_interrupt>
      24:	0c 94 17 04 	jmp	0x82e	; 0x82e <__bad_interrupt>
      28:	0c 94 17 04 	jmp	0x82e	; 0x82e <__bad_interrupt>
      2c:	0c 94 17 04 	jmp	0x82e	; 0x82e <__bad_interrupt>
      30:	0c 94 17 04 	jmp	0x82e	; 0x82e <__bad_interrupt>
      34:	0c 94 17 04 	jmp	0x82e	; 0x82e <__bad_interrupt>
      38:	0c 94 17 04 	jmp	0x82e	; 0x82e <__bad_interrupt>
      3c:	0c 94 17 04 	jmp	0x82e	; 0x82e <__bad_interrupt>
      40:	0c 94 17 04 	jmp	0x82e	; 0x82e <__bad_interrupt>
      44:	0c 94 17 04 	jmp	0x82e	; 0x82e <__bad_interrupt>
      48:	0c 94 17 04 	jmp	0x82e	; 0x82e <__bad_interrupt>
      4c:	0c 94 17 04 	jmp	0x82e	; 0x82e <__bad_interrupt>
      50:	0c 94 17 04 	jmp	0x82e	; 0x82e <__bad_interrupt>
      54:	0c 94 17 04 	jmp	0x82e	; 0x82e <__bad_interrupt>
      58:	0c 94 17 04 	jmp	0x82e	; 0x82e <__bad_interrupt>
      5c:	0c 94 17 04 	jmp	0x82e	; 0x82e <__bad_interrupt>
      60:	0c 94 17 04 	jmp	0x82e	; 0x82e <__bad_interrupt>
      64:	0c 94 17 04 	jmp	0x82e	; 0x82e <__bad_interrupt>

00000068 <__trampolines_end>:
      68:	ff e0       	ldi	r31, 0x0F	; 15
      6a:	ff d1       	rcall	.+1022   	; 0x46a <__LOCK_REGION_LENGTH__+0x6a>
      6c:	af ff       	.word	0xffaf	; ????
      6e:	32 ff       	sbrs	r19, 2
      70:	d0 ff       	sbrs	r29, 0
      72:	fe ff       	Address 0x00000072 is out of bounds.
.word	0xffff	; ????

00000073 <u8g_dev_ssd13xx_sleep_on>:
      73:	ff e0 ff d1 ae ff d0 ff fe                          .........

0000007c <u8g_dev_sh1106_128x64_data_start>:
      7c:	ff e0 ff d1 10 02 ff fe                             ........

00000084 <u8g_dev_ssd1306_128x64_adafruit3_init_seq>:
      84:	ff d0 ff e0 ff c1 ff d1 ae d5 80 a8 3f d3 00 40     ............?..@
      94:	8d 14 20 02 a1 c8 da 12 81 cf d9 f1 db 40 2e a4     .. ..........@..
      a4:	a6 af ff d0 ff fe                                   ......

000000aa <u8g_font_6x10>:
      aa:	01 06 0a 00 fe 07 01 36 02 68 20 ff fe 08 fe 07     .......6.h .....
      ba:	fe 0a 00 60 22 17 67 80 80 80 80 80 00 80 16 33     ...`".g........3
      ca:	63 a0 a0 a0 02 57 67 50 50 f8 50 f8 50 50 02 57     c....WgPP.P.PP.W
      da:	67 20 70 a0 70 28 70 20 02 57 67 48 a8 50 20 50     g p.p(p .WgH.P P
      ea:	a8 90 02 57 67 40 a0 a0 40 a8 90 68 26 13 63 80     ...Wg@..@..h&.c.
      fa:	80 80 12 37 67 20 40 80 80 80 40 20 12 37 67 80     ...7g @...@ .7g.
     10a:	40 20 20 20 40 80 03 55 65 88 50 f8 50 88 03 55     @   @..Ue.P.P..U
     11a:	65 20 20 f8 20 20 11 33 63 60 40 80 05 51 61 f8     e  .  .3c`@..Qa.
     12a:	11 33 63 40 e0 40 02 57 67 08 08 10 20 40 80 80     .3c@.@.Wg... @..
     13a:	02 57 67 20 50 88 88 88 50 20 02 57 67 20 60 a0     .Wg P...P .Wg `.
     14a:	20 20 20 f8 02 57 67 70 88 08 30 40 80 f8 02 57        ..Wgp..0@...W
     15a:	67 f8 08 10 30 08 88 70 02 57 67 10 30 50 90 f8     g...0..p.Wg.0P..
     16a:	10 10 02 57 67 f8 80 b0 c8 08 88 70 02 57 67 30     ...Wg......p.Wg0
     17a:	40 80 b0 c8 88 70 02 57 67 f8 08 10 10 20 40 40     @....p.Wg.... @@
     18a:	02 57 67 70 88 88 70 88 88 70 02 57 67 70 88 98     .Wgp..p..p.Wgp..
     19a:	68 08 10 60 11 37 67 40 e0 40 00 40 e0 40 11 37     h..`.7g@.@.@.@.7
     1aa:	67 40 e0 40 00 60 40 80 12 47 67 10 20 40 80 40     g@.@.`@..Gg. @.@
     1ba:	20 10 04 53 63 f8 00 f8 12 47 67 80 40 20 10 20      ..Sc....Gg.@ . 
     1ca:	40 80 02 57 67 70 88 10 20 20 00 20 02 57 67 70     @..Wgp..  . .Wgp
     1da:	88 98 a8 b0 80 70 02 57 67 20 50 88 88 f8 88 88     .....p.Wg P.....
     1ea:	02 57 67 f0 48 48 70 48 48 f0 02 57 67 70 88 80     .Wg.HHpHH..Wgp..
     1fa:	80 80 88 70 02 57 67 f0 48 48 48 48 48 f0 02 57     ...p.Wg.HHHHH..W
     20a:	67 f8 80 80 f0 80 80 f8 02 57 67 f8 80 80 f0 80     g........Wg.....
     21a:	80 80 02 57 67 70 88 80 80 98 88 70 02 57 67 88     ...Wgp.....p.Wg.
     22a:	88 88 f8 88 88 88 12 37 67 e0 40 40 40 40 40 e0     .......7g.@@@@@.
     23a:	02 57 67 38 10 10 10 10 90 60 02 57 67 88 90 a0     .Wg8.....`.Wg...
     24a:	c0 a0 90 88 02 57 67 80 80 80 80 80 80 f8 02 57     .....Wg........W
     25a:	67 88 88 d8 a8 88 88 88 02 57 67 88 88 c8 a8 98     g........Wg.....
     26a:	88 88 02 57 67 70 88 88 88 88 88 70 02 57 67 f0     ...Wgp.....p.Wg.
     27a:	88 88 f0 80 80 80 01 58 68 70 88 88 88 88 a8 70     .......Xhp.....p
     28a:	08 02 57 67 f0 88 88 f0 a0 90 88 02 57 67 70 88     ..Wg........Wgp.
     29a:	80 70 08 88 70 02 57 67 f8 20 20 20 20 20 20 02     .p..p.Wg.      .
     2aa:	57 67 88 88 88 88 88 88 70 02 57 67 88 88 88 50     Wg......p.Wg...P
     2ba:	50 50 20 02 57 67 88 88 88 a8 a8 d8 88 02 57 67     PP .Wg........Wg
     2ca:	88 88 50 20 50 88 88 02 57 67 88 88 50 20 20 20     ..P P...Wg..P   
     2da:	20 02 57 67 f8 08 10 20 40 80 f8 12 37 67 e0 80      .Wg... @...7g..
     2ea:	80 80 80 80 e0 02 57 67 80 80 40 20 10 08 08 12     ......Wg..@ ....
     2fa:	37 67 e0 20 20 20 20 20 e0 06 53 63 20 50 88 01     7g.     ..Sc P..
     30a:	51 61 f8 28 22 62 80 40 02 55 65 70 08 78 88 78     Qa.("b.@.Uep.x.x
     31a:	02 57 67 80 80 b0 c8 88 c8 b0 02 55 65 70 88 80     .Wg........Uep..
     32a:	88 70 02 57 67 08 08 68 98 88 98 68 02 55 65 70     .p.Wg..h...h.Uep
     33a:	88 f8 80 70 02 57 67 30 48 40 f0 40 40 40 00 57     ...p.Wg0H@.@@@.W
     34a:	67 78 88 88 78 08 88 70 02 57 67 80 80 b0 c8 88     gx..x..p.Wg.....
     35a:	88 88 12 37 67 40 00 c0 40 40 40 e0 10 49 69 10     ...7g@..@@@..Ii.
     36a:	00 30 10 10 10 90 90 60 02 57 67 80 80 88 90 e0     .0.....`.Wg.....
     37a:	90 88 12 37 67 c0 40 40 40 40 40 e0 02 55 65 d0     ...7g.@@@@@..Ue.
     38a:	a8 a8 a8 88 02 55 65 b0 c8 88 88 88 02 55 65 70     .....Ue......Uep
     39a:	88 88 88 70 00 57 67 b0 c8 88 c8 b0 80 80 00 57     ...p.Wg........W
     3aa:	67 68 98 88 98 68 08 08 02 55 65 b0 c8 80 80 80     gh...h...Ue.....
     3ba:	02 55 65 70 80 70 08 f0 02 57 67 40 40 f0 40 40     .Uep.p...Wg@@.@@
     3ca:	48 30 02 55 65 88 88 88 98 68 02 55 65 88 88 50     H0.Ue....h.Ue..P
     3da:	50 20 02 55 65 88 88 a8 a8 50 02 55 65 88 50 20     P .Ue....P.Ue.P 
     3ea:	50 88 00 57 67 88 88 98 68 08 88 70 02 55 65 f8     P..Wg...h..p.Ue.
     3fa:	10 20 40 f8 12 47 67 30 40 20 c0 20 40 30 22 17     . @..Gg0@ . @0".
     40a:	67 80 80 80 80 80 80 80 12 47 67 c0 20 40 30 40     g........Gg. @0@
     41a:	20 c0 06 53 63 48 a8 90 ff ff ff ff ff ff ff ff      ..ScH..........
     42a:	ff ff ff ff ff ff ff ff ff ff ff ff ff ff ff ff     ................
     43a:	ff ff ff ff ff ff ff ff ff 0a 00 60 22 17 67 80     ...........`".g.
     44a:	00 80 80 80 80 80 01 57 67 20 78 a0 a0 a0 78 20     .......Wg x...x 
     45a:	02 57 67 30 48 40 e0 40 48 b0 02 55 65 88 70 50     .Wg0H@.@H..Ue.pP
     46a:	70 88 01 58 68 88 88 50 20 f8 20 20 20 22 17 67     p..Xh..P .   ".g
     47a:	80 80 80 00 80 80 80 01 58 68 70 80 e0 90 48 38     ........Xhp...H8
     48a:	08 70 19 31 61 a0 02 57 67 70 88 a8 c8 a8 88 70     .p.1a..Wgp.....p
     49a:	13 46 66 70 90 b0 50 00 f0 02 65 65 24 48 90 48     .Ffp..P...ee$H.H
     4aa:	24 14 42 62 f0 10 15 41 61 f0 02 57 67 70 88 e8     $.Bb...Aa..Wgp..
     4ba:	c8 c8 88 70 09 51 61 f8 16 33 63 40 a0 40 02 56     ...p.Qa..3c@.@.V
     4ca:	66 20 20 f8 20 20 f8 15 45 65 60 90 20 40 f0 15     f  .  ..Ee`. @..
     4da:	45 65 e0 10 60 10 e0 28 22 62 40 80 01 56 66 88     Ee..`..("b@..Vf.
     4ea:	88 88 c8 b0 80 02 57 67 78 e8 e8 68 28 28 28 25     ......Wgx..h(((%
     4fa:	11 61 80 20 22 62 40 80 15 35 65 40 c0 40 40 e0     .a. "b@..5e@.@@.
     50a:	13 46 66 60 90 90 60 00 f0 02 65 65 90 48 24 48     .Ff`..`...ee.H$H
     51a:	90 01 69 69 40 c0 40 40 e4 0c 14 3c 04 01 69 69     ..ii@.@@...<..ii
     52a:	40 c0 40 40 e8 14 04 08 1c 01 59 69 c0 20 40 20     @.@@......Yi. @ 
     53a:	c8 18 28 78 08 02 57 67 20 00 20 20 40 88 70 02     ..(x..Wg .  @.p.
     54a:	58 68 40 20 70 88 88 f8 88 88 02 58 68 10 20 70     Xh@ p......Xh. p
     55a:	88 88 f8 88 88 02 58 68 20 50 70 88 88 f8 88 88     ......Xh Pp.....
     56a:	02 58 68 48 b0 70 88 88 f8 88 88 02 58 68 50 00     .XhH.p......XhP.
     57a:	70 88 88 f8 88 88 02 58 68 20 50 70 88 88 f8 88     p......Xh Pp....
     58a:	88 02 67 67 3c 50 90 9c f0 90 9c 00 59 69 70 88     ..gg<P......Yip.
     59a:	80 80 80 88 70 20 40 02 58 68 40 f8 80 80 f0 80     ....p @.Xh@.....
     5aa:	80 f8 02 58 68 10 f8 80 80 f0 80 80 f8 02 58 68     ...Xh.........Xh
     5ba:	20 f8 80 80 f0 80 80 f8 02 58 68 50 f8 80 80 f0      ........XhP....
     5ca:	80 80 f8 12 38 68 80 40 e0 40 40 40 40 e0 12 38     ....8h.@.@@@@..8
     5da:	68 20 40 e0 40 40 40 40 e0 12 38 68 40 a0 e0 40     h @.@@@@..8h@..@
     5ea:	40 40 40 e0 12 38 68 a0 00 e0 40 40 40 40 e0 02     @@@..8h...@@@@..
     5fa:	57 67 f0 48 48 e8 48 48 f0 02 58 68 28 50 88 c8     Wg.HH.HH..Xh(P..
     60a:	a8 98 88 88 02 58 68 40 20 70 88 88 88 88 70 02     .....Xh@ p....p.
     61a:	58 68 10 20 70 88 88 88 88 70 02 58 68 20 50 70     Xh. p....p.Xh Pp
     62a:	88 88 88 88 70 02 58 68 28 50 70 88 88 88 88 70     ....p.Xh(Pp....p
     63a:	02 58 68 50 00 70 88 88 88 88 70 02 55 65 88 50     .XhP.p....p.Ue.P
     64a:	20 50 88 02 57 67 70 98 98 a8 c8 c8 70 02 58 68      P..Wgp.....p.Xh
     65a:	40 20 88 88 88 88 88 70 02 58 68 10 20 88 88 88     @ .....p.Xh. ...
     66a:	88 88 70 02 58 68 20 50 00 88 88 88 88 70 02 58     ..p.Xh P.....p.X
     67a:	68 50 00 88 88 88 88 88 70 02 58 68 10 20 88 88     hP......p.Xh. ..
     68a:	50 20 20 20 02 57 67 80 f0 88 f0 80 80 80 02 57     P   .Wg........W
     69a:	67 70 88 90 a0 90 88 b0 02 58 68 40 20 00 70 08     gp.......Xh@ .p.
     6aa:	78 88 78 02 58 68 10 20 00 70 08 78 88 78 02 58     x.x.Xh. .p.x.x.X
     6ba:	68 20 50 00 70 08 78 88 78 02 58 68 28 50 00 70     h P.p.x.x.Xh(P.p
     6ca:	08 78 88 78 02 57 67 50 00 70 08 78 88 78 02 58     .x.x.WgP.p.x.x.X
     6da:	68 20 50 20 70 08 78 88 78 02 65 65 78 14 7c 90     h P p.x.x.eex.|.
     6ea:	7c 00 57 67 70 88 80 88 70 20 40 02 58 68 40 20     |.Wgp...p @.Xh@ 
     6fa:	00 70 88 f8 80 70 02 58 68 10 20 00 70 88 f8 80     .p...p.Xh. .p...
     70a:	70 02 58 68 20 50 00 70 88 f8 80 70 02 57 67 50     p.Xh P.p...p.WgP
     71a:	00 70 88 f8 80 70 12 38 68 80 40 00 c0 40 40 40     .p...p.8h.@..@@@
     72a:	e0 12 38 68 40 80 00 c0 40 40 40 e0 12 38 68 40     ..8h@...@@@..8h@
     73a:	a0 00 c0 40 40 40 e0 12 37 67 a0 00 c0 40 40 40     ...@@@..7g...@@@
     74a:	e0 02 57 67 c0 30 70 88 88 88 70 02 58 68 28 50     ..Wg.0p...p.Xh(P
     75a:	00 b0 c8 88 88 88 02 58 68 40 20 00 70 88 88 88     .......Xh@ .p...
     76a:	70 02 58 68 10 20 00 70 88 88 88 70 02 58 68 20     p.Xh. .p...p.Xh 
     77a:	50 00 70 88 88 88 70 02 58 68 28 50 00 70 88 88     P.p...p.Xh(P.p..
     78a:	88 70 02 57 67 50 00 70 88 88 88 70 03 55 65 20     .p.WgP.p...p.Ue 
     79a:	00 f8 00 20 02 55 65 78 98 a8 c8 f0 02 58 68 40     ... .Uex.....Xh@
     7aa:	20 00 88 88 88 98 68 02 58 68 10 20 00 88 88 88      .....h.Xh. ....
     7ba:	98 68 02 58 68 20 50 00 88 88 88 98 68 02 57 67     .h.Xh P.....h.Wg
     7ca:	50 00 88 88 88 98 68 00 59 69 10 20 88 88 98 68     P.....h.Yi. ...h
     7da:	08 88 70 00 58 68 80 f0 88 88 88 f0 80 80 00 59     ..p.Xh.........Y
     7ea:	69 50 00 88 88 98 68 08 88 70                       iP....h..p

000007f4 <__ctors_end>:
     7f4:	11 24       	eor	r1, r1
     7f6:	1f be       	out	0x3f, r1	; 63
     7f8:	cf ef       	ldi	r28, 0xFF	; 255
     7fa:	d4 e0       	ldi	r29, 0x04	; 4
     7fc:	de bf       	out	0x3e, r29	; 62
     7fe:	cd bf       	out	0x3d, r28	; 61

00000800 <__do_copy_data>:
     800:	11 e0       	ldi	r17, 0x01	; 1
     802:	a0 e0       	ldi	r26, 0x00	; 0
     804:	b1 e0       	ldi	r27, 0x01	; 1
     806:	ea e3       	ldi	r30, 0x3A	; 58
     808:	fe e1       	ldi	r31, 0x1E	; 30
     80a:	02 c0       	rjmp	.+4      	; 0x810 <__do_copy_data+0x10>
     80c:	05 90       	lpm	r0, Z+
     80e:	0d 92       	st	X+, r0
     810:	ac 32       	cpi	r26, 0x2C	; 44
     812:	b1 07       	cpc	r27, r17
     814:	d9 f7       	brne	.-10     	; 0x80c <__do_copy_data+0xc>

00000816 <__do_clear_bss>:
     816:	22 e0       	ldi	r18, 0x02	; 2
     818:	ac e2       	ldi	r26, 0x2C	; 44
     81a:	b1 e0       	ldi	r27, 0x01	; 1
     81c:	01 c0       	rjmp	.+2      	; 0x820 <.do_clear_bss_start>

0000081e <.do_clear_bss_loop>:
     81e:	1d 92       	st	X+, r1

00000820 <.do_clear_bss_start>:
     820:	a4 30       	cpi	r26, 0x04	; 4
     822:	b2 07       	cpc	r27, r18
     824:	e1 f7       	brne	.-8      	; 0x81e <.do_clear_bss_loop>
     826:	0e 94 0c 05 	call	0xa18	; 0xa18 <main>
     82a:	0c 94 1b 0f 	jmp	0x1e36	; 0x1e36 <_exit>

0000082e <__bad_interrupt>:
     82e:	0c 94 00 00 	jmp	0	; 0x0 <__vectors>

00000832 <ws2812_display>:
	defined (__AVR_ATmega48PA__) || defined (__AVR_ATmega48P__)*/

//********* OUT **************
ws2812_display:
; inicjalizacja stałych i zmiennych
	ldi r30, lo8( ws2812_fbuf )	;adres bufora ramki do rejestru Z
     832:	ec ee       	ldi	r30, 0xEC	; 236
	ldi r31, hi8( ws2812_fbuf )	;
     834:	f1 e0       	ldi	r31, 0x01	; 1
	ldi ridxlo, lo8( WS2812_LED_NUM * 3 )	;długość bufora ramki do licznika
     836:	88 e1       	ldi	r24, 0x18	; 24
	ldi ridxhi, hi8( WS2812_LED_NUM * 3 )
     838:	90 e0       	ldi	r25, 0x00	; 0
	ldi routpin, _BV(WS2812_PIN_NR)
     83a:	74 e0       	ldi	r23, 0x04	; 4
	ldi ridxbit, 6	;tylko bajty 0-5 w wewnętrznej pętli
     83c:	56 e0       	ldi	r21, 0x06	; 6

; sprawdzenie czy są dane do przetwarzania
	cp ridxlo,r1		;jeżeli WS2812_LED_NUM == 0 ?
     83e:	81 15       	cp	r24, r1
	cpc ridxhi,r1		;...
     840:	91 05       	cpc	r25, r1
	brne cont
     842:	09 f4       	brne	.+2      	; 0x846 <cont>
	rjmp exitproc		;...wyjdz z procedury
     844:	35 c0       	rjmp	.+106    	; 0x8b0 <exitproc>

00000846 <cont>:
cont:

	ld rbyte, Z+	;pobierz bajt z bufora ramki
     846:	61 91       	ld	r22, Z+

; przerwania
	in rtmp,SREG	;zachowanie globalnej flagi przerwań
     848:	4f b7       	in	r20, 0x3f	; 63
	cli				;wyłącz przerwania, procedura jest krytyczna czasowo
     84a:	f8 94       	cli

0000084c <loop>:
;bit 6 - sprawdzanie osiągnięcia końca bufora i ewentualne skierowanie programu w stronę końca
;bit 7 wersja zwykła - wczytanie nowego bajtu z bufora
;bit 7 wersja końcowa - wyjście z pętli
loop:
;bity 0-5
	out routport, routpin	;1	[1]	ustaw stan wysoki na wyjściu
     84c:	73 b9       	out	0x03, r23	; 3
	lsl rbyte				;1	[2]
     84e:	66 0f       	add	r22, r22
	brcs bit_0_5_one		;1/2[3] jeżeli bit==1 skocz
     850:	30 f0       	brcs	.+12     	; 0x85e <bit_0_5_one>
	DELAY_INSTR H0_DELAY
	out routport, routpin	;1	[4]
     852:	73 b9       	out	0x03, r23	; 3
	nop						;1	[5]
     854:	00 00       	nop
	nop						;1	[6]
     856:	00 00       	nop
	DELAY_INSTR L0_DELAY
	dec ridxbit				;1	[7] licznik wewnętrznej pętli
     858:	5a 95       	dec	r21
	;kolejne dwie instrukcje muszą być na końcu, ewentualne nopy wyżej
	breq bit_6_zero			;1/2[8]
     85a:	31 f0       	breq	.+12     	; 0x868 <bit_6_zero>
	rjmp loop				;2	[10]
     85c:	f7 cf       	rjmp	.-18     	; 0x84c <loop>

0000085e <bit_0_5_one>:

bit_0_5_one:				;po skoku	[4]
	nop						;1	[5]
     85e:	00 00       	nop
	DELAY_INSTR H1_DELAY
	dec ridxbit				;1	[6] licznik wewnętrznej pętli
     860:	5a 95       	dec	r21
	out routport, routpin	;1	[7]
     862:	73 b9       	out	0x03, r23	; 3
	DELAY_INSTR L1_DELAY
	;kolejne dwie instrukcje muszą być na końcu, ewentualne nopy wyżej
	breq bit_6_zero			;1/2[8]
     864:	09 f0       	breq	.+2      	; 0x868 <bit_6_zero>
	rjmp loop				;2	[10]
     866:	f2 cf       	rjmp	.-28     	; 0x84c <loop>

00000868 <bit_6_zero>:

;....................
;bit 6
bit_6_zero:					;po skoku [9]
	nop						;1	[10] - końcówka 5. bitu
     868:	00 00       	nop
	out routport, routpin	;1	[1]
     86a:	73 b9       	out	0x03, r23	; 3
	lsl rbyte				;1	[2]
     86c:	66 0f       	add	r22, r22
	brcs bit_6_one			;1/2[3]
     86e:	28 f0       	brcs	.+10     	; 0x87a <bit_6_one>
	DELAY_INSTR H0_DELAY
	out routport, routpin	;1	[4]
     870:	73 b9       	out	0x03, r23	; 3
	nop						;1	[5]
     872:	00 00       	nop
	DELAY_INSTR L0_DELAY
;następne instrukcje muszą być na końcu, ewentualne nopy wyżej
	sbiw ridxlo,1			;2	[7] zmniejsz licznik
     874:	01 97       	sbiw	r24, 0x01	; 1
	breq bit_7_zero_end		;1/2[8]	jeżeli koniec bufora ramki wyjdź
     876:	29 f0       	breq	.+10     	; 0x882 <bit_7_zero_end>
	rjmp bit_7_zero			;2	[10]
     878:	0e c0       	rjmp	.+28     	; 0x896 <bit_7_zero>

0000087a <bit_6_one>:

bit_6_one:					;po skoku [4]
	DELAY_INSTR H1_DELAY
	sbiw ridxlo, 1			;2	[6]
     87a:	01 97       	sbiw	r24, 0x01	; 1
	out routport, routpin	;1	[7]
     87c:	73 b9       	out	0x03, r23	; 3
	DELAY_INSTR L1_DELAY
;następne dwie instrukcje muszą być na końcu, ewentualne nopy wyżej
	breq bit_7_zero_end		;1/2[8]
     87e:	09 f0       	breq	.+2      	; 0x882 <bit_7_zero_end>
	rjmp bit_7_zero			;2	[10]
     880:	0a c0       	rjmp	.+20     	; 0x896 <bit_7_zero>

00000882 <bit_7_zero_end>:

;.................
;ostatni bit całej transmisji jest inny
;koniec bufora ramki, wyślij ostatni bit i zakończ pracę
bit_7_zero_end:				;po skoku [9]
	nop						;1	[10] - końcówka przedostatniego bitu
     882:	00 00       	nop
	out routport, routpin	;1	[1]
     884:	73 b9       	out	0x03, r23	; 3
	lsl rbyte				;1	[2]
     886:	66 0f       	add	r22, r22
	brcs bit_7_one_end		;1/2[3]
     888:	10 f0       	brcs	.+4      	; 0x88e <bit_7_one_end>
	DELAY_INSTR H0_DELAY
	out routport, routpin	;1	[4]
     88a:	73 b9       	out	0x03, r23	; 3
	rjmp endproc			;2	[6]
     88c:	10 c0       	rjmp	.+32     	; 0x8ae <endproc>

0000088e <bit_7_one_end>:

bit_7_one_end:				;po skoku [4]
	nop						;1	[5]
     88e:	00 00       	nop
	nop						;1	[6]
     890:	00 00       	nop
	DELAY_INSTR H1_DELAY
	out routport, routpin	;1	[7]
     892:	73 b9       	out	0x03, r23	; 3
	rjmp endproc			;2	[9]
     894:	0c c0       	rjmp	.+24     	; 0x8ae <endproc>

00000896 <bit_7_zero>:
;ostatni wysłany bit jest krótszy

;.....................
;bit 7
bit_7_zero: 					;ostatni bit 0
	out routport, routpin	;1	[1]
     896:	73 b9       	out	0x03, r23	; 3
	lsl rbyte				;1	[2]
     898:	66 0f       	add	r22, r22
	brcs bit_7_one			;1/2[3]
     89a:	28 f0       	brcs	.+10     	; 0x8a6 <bit_7_one>
	DELAY_INSTR H0_DELAY
	out routport, routpin	;1	[4]
     89c:	73 b9       	out	0x03, r23	; 3
	DELAY_INSTR L0_DELAY
	ld rbyte, Z+			;2	[6]	wczytaj następny bajt z bufora ramki
     89e:	61 91       	ld	r22, Z+
	ldi ridxbit, 6			;1	[7]	licznik wewnętrznej pętli
     8a0:	56 e0       	ldi	r21, 0x06	; 6
	nop						;1	[8]
     8a2:	00 00       	nop
	rjmp loop				;2 [10]
     8a4:	d3 cf       	rjmp	.-90     	; 0x84c <loop>

000008a6 <bit_7_one>:

bit_7_one:					;po skoku [4]
	DELAY_INSTR H1_DELAY
	ld rbyte, Z+			;2	[6] następny bajt z bufora ramki
     8a6:	61 91       	ld	r22, Z+
	out routport, routpin	;1	[7]
     8a8:	73 b9       	out	0x03, r23	; 3
	DELAY_INSTR L1_DELAY
	ldi ridxbit, 6			;1	[8] licznik wewnętrznej pętli
     8aa:	56 e0       	ldi	r21, 0x06	; 6
	rjmp loop				;2	[10]
     8ac:	cf cf       	rjmp	.-98     	; 0x84c <loop>

000008ae <endproc>:

;----- koniec nadawania -----

endproc:
	out SREG,rtmp	;odtwórz globalną flagę przerwania
     8ae:	4f bf       	out	0x3f, r20	; 63

000008b0 <exitproc>:
exitproc:
	ret
     8b0:	08 95       	ret

000008b2 <InitInterrupt>:
     8b2:	52 98       	cbi	0x0a, 2	; 10
     8b4:	5a 9a       	sbi	0x0b, 2	; 11
     8b6:	e9 e6       	ldi	r30, 0x69	; 105
     8b8:	f0 e0       	ldi	r31, 0x00	; 0
     8ba:	80 81       	ld	r24, Z
     8bc:	81 60       	ori	r24, 0x01	; 1
     8be:	80 83       	st	Z, r24
     8c0:	e8 9a       	sbi	0x1d, 0	; 29
     8c2:	08 95       	ret

000008c4 <FullInit>:
     8c4:	84 b1       	in	r24, 0x04	; 4
     8c6:	8f ef       	ldi	r24, 0xFF	; 255
     8c8:	84 b9       	out	0x04, r24	; 4
     8ca:	40 e0       	ldi	r20, 0x00	; 0
     8cc:	60 e0       	ldi	r22, 0x00	; 0
     8ce:	71 e0       	ldi	r23, 0x01	; 1
     8d0:	85 eb       	ldi	r24, 0xB5	; 181
     8d2:	91 e0       	ldi	r25, 0x01	; 1
     8d4:	0e 94 9a 0a 	call	0x1534	; 0x1534 <u8g_InitI2C>
     8d8:	0e 94 59 04 	call	0x8b2	; 0x8b2 <InitInterrupt>
     8dc:	78 94       	sei
     8de:	08 95       	ret

000008e0 <draw>:
     8e0:	0f 93       	push	r16
     8e2:	1f 93       	push	r17
     8e4:	cf 93       	push	r28
     8e6:	df 93       	push	r29
     8e8:	cd b7       	in	r28, 0x3d	; 61
     8ea:	de b7       	in	r29, 0x3e	; 62
     8ec:	64 97       	sbiw	r28, 0x14	; 20
     8ee:	0f b6       	in	r0, 0x3f	; 63
     8f0:	f8 94       	cli
     8f2:	de bf       	out	0x3e, r29	; 62
     8f4:	0f be       	out	0x3f, r0	; 63
     8f6:	cd bf       	out	0x3d, r28	; 61
     8f8:	6b e1       	ldi	r22, 0x1B	; 27
     8fa:	71 e0       	ldi	r23, 0x01	; 1
     8fc:	8e 01       	movw	r16, r28
     8fe:	0f 5f       	subi	r16, 0xFF	; 255
     900:	1f 4f       	sbci	r17, 0xFF	; 255
     902:	c8 01       	movw	r24, r16
     904:	0e 94 2a 0c 	call	0x1854	; 0x1854 <strcpy>
     908:	80 91 2d 01 	lds	r24, 0x012D	; 0x80012d <__data_end+0x1>
     90c:	8f 93       	push	r24
     90e:	80 91 2c 01 	lds	r24, 0x012C	; 0x80012c <__data_end>
     912:	8f 93       	push	r24
     914:	8e e0       	ldi	r24, 0x0E	; 14
     916:	91 e0       	ldi	r25, 0x01	; 1
     918:	9f 93       	push	r25
     91a:	8f 93       	push	r24
     91c:	1f 93       	push	r17
     91e:	0f 93       	push	r16
     920:	0e 94 31 0c 	call	0x1862	; 0x1862 <sprintf>
     924:	6a ea       	ldi	r22, 0xAA	; 170
     926:	70 e0       	ldi	r23, 0x00	; 0
     928:	85 eb       	ldi	r24, 0xB5	; 181
     92a:	91 e0       	ldi	r25, 0x01	; 1
     92c:	0e 94 92 09 	call	0x1324	; 0x1324 <u8g_SetFont>
     930:	2c e1       	ldi	r18, 0x1C	; 28
     932:	31 e0       	ldi	r19, 0x01	; 1
     934:	4f e0       	ldi	r20, 0x0F	; 15
     936:	60 e0       	ldi	r22, 0x00	; 0
     938:	85 eb       	ldi	r24, 0xB5	; 181
     93a:	91 e0       	ldi	r25, 0x01	; 1
     93c:	0e 94 17 09 	call	0x122e	; 0x122e <u8g_DrawStr>
     940:	98 01       	movw	r18, r16
     942:	4e e1       	ldi	r20, 0x1E	; 30
     944:	60 e0       	ldi	r22, 0x00	; 0
     946:	85 eb       	ldi	r24, 0xB5	; 181
     948:	91 e0       	ldi	r25, 0x01	; 1
     94a:	0e 94 17 09 	call	0x122e	; 0x122e <u8g_DrawStr>
     94e:	0f 90       	pop	r0
     950:	0f 90       	pop	r0
     952:	0f 90       	pop	r0
     954:	0f 90       	pop	r0
     956:	0f 90       	pop	r0
     958:	0f 90       	pop	r0
     95a:	64 96       	adiw	r28, 0x14	; 20
     95c:	0f b6       	in	r0, 0x3f	; 63
     95e:	f8 94       	cli
     960:	de bf       	out	0x3e, r29	; 62
     962:	0f be       	out	0x3f, r0	; 63
     964:	cd bf       	out	0x3d, r28	; 61
     966:	df 91       	pop	r29
     968:	cf 91       	pop	r28
     96a:	1f 91       	pop	r17
     96c:	0f 91       	pop	r16
     96e:	08 95       	ret

00000970 <set_red>:
     970:	1f 93       	push	r17
     972:	cf 93       	push	r28
     974:	df 93       	push	r29
     976:	18 2f       	mov	r17, r24
     978:	c0 e0       	ldi	r28, 0x00	; 0
     97a:	d0 e0       	ldi	r29, 0x00	; 0
     97c:	61 2f       	mov	r22, r17
     97e:	ce 01       	movw	r24, r28
     980:	0e 94 ee 0b 	call	0x17dc	; 0x17dc <ws2812_set_red>
     984:	60 e0       	ldi	r22, 0x00	; 0
     986:	ce 01       	movw	r24, r28
     988:	0e 94 f8 0b 	call	0x17f0	; 0x17f0 <ws2812_set_green>
     98c:	21 96       	adiw	r28, 0x01	; 1
     98e:	c8 30       	cpi	r28, 0x08	; 8
     990:	d1 05       	cpc	r29, r1
     992:	a1 f7       	brne	.-24     	; 0x97c <set_red+0xc>
     994:	df 91       	pop	r29
     996:	cf 91       	pop	r28
     998:	1f 91       	pop	r17
     99a:	08 95       	ret

0000099c <set_green>:
     99c:	1f 93       	push	r17
     99e:	cf 93       	push	r28
     9a0:	df 93       	push	r29
     9a2:	18 2f       	mov	r17, r24
     9a4:	c0 e0       	ldi	r28, 0x00	; 0
     9a6:	d0 e0       	ldi	r29, 0x00	; 0
     9a8:	61 2f       	mov	r22, r17
     9aa:	ce 01       	movw	r24, r28
     9ac:	0e 94 f8 0b 	call	0x17f0	; 0x17f0 <ws2812_set_green>
     9b0:	60 e0       	ldi	r22, 0x00	; 0
     9b2:	ce 01       	movw	r24, r28
     9b4:	0e 94 ee 0b 	call	0x17dc	; 0x17dc <ws2812_set_red>
     9b8:	21 96       	adiw	r28, 0x01	; 1
     9ba:	c8 30       	cpi	r28, 0x08	; 8
     9bc:	d1 05       	cpc	r29, r1
     9be:	a1 f7       	brne	.-24     	; 0x9a8 <set_green+0xc>
     9c0:	df 91       	pop	r29
     9c2:	cf 91       	pop	r28
     9c4:	1f 91       	pop	r17
     9c6:	08 95       	ret

000009c8 <isDistanceCorrect>:
     9c8:	80 91 30 01 	lds	r24, 0x0130	; 0x800130 <pulse>
     9cc:	90 91 31 01 	lds	r25, 0x0131	; 0x800131 <pulse+0x1>
     9d0:	6a e3       	ldi	r22, 0x3A	; 58
     9d2:	70 e0       	ldi	r23, 0x00	; 0
     9d4:	0e 94 16 0c 	call	0x182c	; 0x182c <__divmodhi4>
     9d8:	cb 01       	movw	r24, r22
     9da:	01 97       	sbiw	r24, 0x01	; 1
     9dc:	80 39       	cpi	r24, 0x90	; 144
     9de:	91 40       	sbci	r25, 0x01	; 1
     9e0:	20 f4       	brcc	.+8      	; 0x9ea <isDistanceCorrect+0x22>
     9e2:	70 93 2d 01 	sts	0x012D, r23	; 0x80012d <__data_end+0x1>
     9e6:	60 93 2c 01 	sts	0x012C, r22	; 0x80012c <__data_end>
     9ea:	08 95       	ret

000009ec <ShowDistanceOnLed>:
     9ec:	80 91 2c 01 	lds	r24, 0x012C	; 0x80012c <__data_end>
     9f0:	90 91 2d 01 	lds	r25, 0x012D	; 0x80012d <__data_end+0x1>
     9f4:	89 3c       	cpi	r24, 0xC9	; 201
     9f6:	91 05       	cpc	r25, r1
     9f8:	4c f4       	brge	.+18     	; 0xa0c <ShowDistanceOnLed+0x20>
     9fa:	28 ec       	ldi	r18, 0xC8	; 200
     9fc:	30 e0       	ldi	r19, 0x00	; 0
     9fe:	a9 01       	movw	r20, r18
     a00:	48 1b       	sub	r20, r24
     a02:	59 0b       	sbc	r21, r25
     a04:	ca 01       	movw	r24, r20
     a06:	0e 94 b8 04 	call	0x970	; 0x970 <set_red>
     a0a:	04 c0       	rjmp	.+8      	; 0xa14 <ShowDistanceOnLed+0x28>
     a0c:	88 5c       	subi	r24, 0xC8	; 200
     a0e:	91 09       	sbc	r25, r1
     a10:	0e 94 ce 04 	call	0x99c	; 0x99c <set_green>
     a14:	0c 94 19 04 	jmp	0x832	; 0x832 <ws2812_display>

00000a18 <main>:
     a18:	0e 94 62 04 	call	0x8c4	; 0x8c4 <FullInit>
     a1c:	0e 94 ec 0b 	call	0x17d8	; 0x17d8 <ws2812_init>
     a20:	29 9a       	sbi	0x05, 1	; 5
     a22:	2a e1       	ldi	r18, 0x1A	; 26
     a24:	2a 95       	dec	r18
     a26:	f1 f7       	brne	.-4      	; 0xa24 <main+0xc>
     a28:	00 c0       	rjmp	.+0      	; 0xa2a <main+0x12>
     a2a:	78 94       	sei
     a2c:	29 98       	cbi	0x05, 1	; 5
     a2e:	8f ef       	ldi	r24, 0xFF	; 255
     a30:	90 e7       	ldi	r25, 0x70	; 112
     a32:	22 e0       	ldi	r18, 0x02	; 2
     a34:	81 50       	subi	r24, 0x01	; 1
     a36:	90 40       	sbci	r25, 0x00	; 0
     a38:	20 40       	sbci	r18, 0x00	; 0
     a3a:	e1 f7       	brne	.-8      	; 0xa34 <main+0x1c>
     a3c:	00 c0       	rjmp	.+0      	; 0xa3e <main+0x26>
     a3e:	00 00       	nop
     a40:	0e 94 e4 04 	call	0x9c8	; 0x9c8 <isDistanceCorrect>
     a44:	85 eb       	ldi	r24, 0xB5	; 181
     a46:	91 e0       	ldi	r25, 0x01	; 1
     a48:	0e 94 af 0a 	call	0x155e	; 0x155e <u8g_FirstPage>
     a4c:	0e 94 70 04 	call	0x8e0	; 0x8e0 <draw>
     a50:	85 eb       	ldi	r24, 0xB5	; 181
     a52:	91 e0       	ldi	r25, 0x01	; 1
     a54:	0e 94 b4 0a 	call	0x1568	; 0x1568 <u8g_NextPage>
     a58:	81 11       	cpse	r24, r1
     a5a:	f8 cf       	rjmp	.-16     	; 0xa4c <main+0x34>
     a5c:	0e 94 f6 04 	call	0x9ec	; 0x9ec <ShowDistanceOnLed>
     a60:	10 92 31 01 	sts	0x0131, r1	; 0x800131 <pulse+0x1>
     a64:	10 92 30 01 	sts	0x0130, r1	; 0x800130 <pulse>
     a68:	db cf       	rjmp	.-74     	; 0xa20 <main+0x8>

00000a6a <__vector_1>:
     a6a:	1f 92       	push	r1
     a6c:	0f 92       	push	r0
     a6e:	0f b6       	in	r0, 0x3f	; 63
     a70:	0f 92       	push	r0
     a72:	11 24       	eor	r1, r1
     a74:	8f 93       	push	r24
     a76:	9f 93       	push	r25
     a78:	80 91 2e 01 	lds	r24, 0x012E	; 0x80012e <flag>
     a7c:	90 91 2f 01 	lds	r25, 0x012F	; 0x80012f <flag+0x1>
     a80:	01 97       	sbiw	r24, 0x01	; 1
     a82:	91 f4       	brne	.+36     	; 0xaa8 <__vector_1+0x3e>
     a84:	10 92 81 00 	sts	0x0081, r1	; 0x800081 <__TEXT_REGION_LENGTH__+0x7e0081>
     a88:	80 91 84 00 	lds	r24, 0x0084	; 0x800084 <__TEXT_REGION_LENGTH__+0x7e0084>
     a8c:	90 91 85 00 	lds	r25, 0x0085	; 0x800085 <__TEXT_REGION_LENGTH__+0x7e0085>
     a90:	90 93 31 01 	sts	0x0131, r25	; 0x800131 <pulse+0x1>
     a94:	80 93 30 01 	sts	0x0130, r24	; 0x800130 <pulse>
     a98:	10 92 85 00 	sts	0x0085, r1	; 0x800085 <__TEXT_REGION_LENGTH__+0x7e0085>
     a9c:	10 92 84 00 	sts	0x0084, r1	; 0x800084 <__TEXT_REGION_LENGTH__+0x7e0084>
     aa0:	10 92 2f 01 	sts	0x012F, r1	; 0x80012f <flag+0x1>
     aa4:	10 92 2e 01 	sts	0x012E, r1	; 0x80012e <flag>
     aa8:	80 91 2e 01 	lds	r24, 0x012E	; 0x80012e <flag>
     aac:	90 91 2f 01 	lds	r25, 0x012F	; 0x80012f <flag+0x1>
     ab0:	89 2b       	or	r24, r25
     ab2:	59 f4       	brne	.+22     	; 0xaca <__vector_1+0x60>
     ab4:	80 91 81 00 	lds	r24, 0x0081	; 0x800081 <__TEXT_REGION_LENGTH__+0x7e0081>
     ab8:	82 60       	ori	r24, 0x02	; 2
     aba:	80 93 81 00 	sts	0x0081, r24	; 0x800081 <__TEXT_REGION_LENGTH__+0x7e0081>
     abe:	81 e0       	ldi	r24, 0x01	; 1
     ac0:	90 e0       	ldi	r25, 0x00	; 0
     ac2:	90 93 2f 01 	sts	0x012F, r25	; 0x80012f <flag+0x1>
     ac6:	80 93 2e 01 	sts	0x012E, r24	; 0x80012e <flag>
     aca:	9f 91       	pop	r25
     acc:	8f 91       	pop	r24
     ace:	0f 90       	pop	r0
     ad0:	0f be       	out	0x3f, r0	; 63
     ad2:	0f 90       	pop	r0
     ad4:	1f 90       	pop	r1
     ad6:	18 95       	reti

00000ad8 <u8g_IsBBXIntersection>:
     ad8:	0f 93       	push	r16
     ada:	fc 01       	movw	r30, r24
     adc:	01 50       	subi	r16, 0x01	; 1
     ade:	04 0f       	add	r16, r20
     ae0:	84 a9       	ldd	r24, Z+52	; 0x34
     ae2:	96 a9       	ldd	r25, Z+54	; 0x36
     ae4:	94 17       	cp	r25, r20
     ae6:	18 f0       	brcs	.+6      	; 0xaee <u8g_IsBBXIntersection+0x16>
     ae8:	08 17       	cp	r16, r24
     aea:	28 f4       	brcc	.+10     	; 0xaf6 <u8g_IsBBXIntersection+0x1e>
     aec:	02 c0       	rjmp	.+4      	; 0xaf2 <u8g_IsBBXIntersection+0x1a>
     aee:	08 17       	cp	r16, r24
     af0:	50 f0       	brcs	.+20     	; 0xb06 <u8g_IsBBXIntersection+0x2e>
     af2:	04 17       	cp	r16, r20
     af4:	40 f4       	brcc	.+16     	; 0xb06 <u8g_IsBBXIntersection+0x2e>
     af6:	21 50       	subi	r18, 0x01	; 1
     af8:	26 0f       	add	r18, r22
     afa:	83 a9       	ldd	r24, Z+51	; 0x33
     afc:	95 a9       	ldd	r25, Z+53	; 0x35
     afe:	96 17       	cp	r25, r22
     b00:	20 f4       	brcc	.+8      	; 0xb0a <u8g_IsBBXIntersection+0x32>
     b02:	28 17       	cp	r18, r24
     b04:	20 f4       	brcc	.+8      	; 0xb0e <u8g_IsBBXIntersection+0x36>
     b06:	80 e0       	ldi	r24, 0x00	; 0
     b08:	07 c0       	rjmp	.+14     	; 0xb18 <u8g_IsBBXIntersection+0x40>
     b0a:	28 17       	cp	r18, r24
     b0c:	20 f4       	brcc	.+8      	; 0xb16 <u8g_IsBBXIntersection+0x3e>
     b0e:	81 e0       	ldi	r24, 0x01	; 1
     b10:	26 17       	cp	r18, r22
     b12:	10 f0       	brcs	.+4      	; 0xb18 <u8g_IsBBXIntersection+0x40>
     b14:	f8 cf       	rjmp	.-16     	; 0xb06 <u8g_IsBBXIntersection+0x2e>
     b16:	81 e0       	ldi	r24, 0x01	; 1
     b18:	0f 91       	pop	r16
     b1a:	08 95       	ret

00000b1c <u8g_InitCom>:
     b1c:	db 01       	movw	r26, r22
     b1e:	14 96       	adiw	r26, 0x04	; 4
     b20:	ed 91       	ld	r30, X+
     b22:	fc 91       	ld	r31, X
     b24:	15 97       	sbiw	r26, 0x05	; 5
     b26:	20 e0       	ldi	r18, 0x00	; 0
     b28:	30 e0       	ldi	r19, 0x00	; 0
     b2a:	61 e0       	ldi	r22, 0x01	; 1
     b2c:	09 94       	ijmp

00000b2e <u8g_SetChipSelect>:
     b2e:	db 01       	movw	r26, r22
     b30:	14 96       	adiw	r26, 0x04	; 4
     b32:	ed 91       	ld	r30, X+
     b34:	fc 91       	ld	r31, X
     b36:	15 97       	sbiw	r26, 0x05	; 5
     b38:	20 e0       	ldi	r18, 0x00	; 0
     b3a:	30 e0       	ldi	r19, 0x00	; 0
     b3c:	63 e0       	ldi	r22, 0x03	; 3
     b3e:	09 94       	ijmp

00000b40 <u8g_SetResetLow>:
     b40:	db 01       	movw	r26, r22
     b42:	14 96       	adiw	r26, 0x04	; 4
     b44:	ed 91       	ld	r30, X+
     b46:	fc 91       	ld	r31, X
     b48:	15 97       	sbiw	r26, 0x05	; 5
     b4a:	20 e0       	ldi	r18, 0x00	; 0
     b4c:	30 e0       	ldi	r19, 0x00	; 0
     b4e:	40 e0       	ldi	r20, 0x00	; 0
     b50:	64 e0       	ldi	r22, 0x04	; 4
     b52:	09 94       	ijmp

00000b54 <u8g_SetResetHigh>:
     b54:	db 01       	movw	r26, r22
     b56:	14 96       	adiw	r26, 0x04	; 4
     b58:	ed 91       	ld	r30, X+
     b5a:	fc 91       	ld	r31, X
     b5c:	15 97       	sbiw	r26, 0x05	; 5
     b5e:	20 e0       	ldi	r18, 0x00	; 0
     b60:	30 e0       	ldi	r19, 0x00	; 0
     b62:	41 e0       	ldi	r20, 0x01	; 1
     b64:	64 e0       	ldi	r22, 0x04	; 4
     b66:	09 94       	ijmp

00000b68 <u8g_SetAddress>:
     b68:	db 01       	movw	r26, r22
     b6a:	14 96       	adiw	r26, 0x04	; 4
     b6c:	ed 91       	ld	r30, X+
     b6e:	fc 91       	ld	r31, X
     b70:	15 97       	sbiw	r26, 0x05	; 5
     b72:	20 e0       	ldi	r18, 0x00	; 0
     b74:	30 e0       	ldi	r19, 0x00	; 0
     b76:	62 e0       	ldi	r22, 0x02	; 2
     b78:	09 94       	ijmp

00000b7a <u8g_WriteByte>:
     b7a:	db 01       	movw	r26, r22
     b7c:	14 96       	adiw	r26, 0x04	; 4
     b7e:	ed 91       	ld	r30, X+
     b80:	fc 91       	ld	r31, X
     b82:	15 97       	sbiw	r26, 0x05	; 5
     b84:	20 e0       	ldi	r18, 0x00	; 0
     b86:	30 e0       	ldi	r19, 0x00	; 0
     b88:	65 e0       	ldi	r22, 0x05	; 5
     b8a:	09 94       	ijmp

00000b8c <u8g_WriteSequence>:
     b8c:	db 01       	movw	r26, r22
     b8e:	14 96       	adiw	r26, 0x04	; 4
     b90:	ed 91       	ld	r30, X+
     b92:	fc 91       	ld	r31, X
     b94:	15 97       	sbiw	r26, 0x05	; 5
     b96:	66 e0       	ldi	r22, 0x06	; 6
     b98:	09 94       	ijmp

00000b9a <u8g_WriteEscSeqP>:
     b9a:	cf 92       	push	r12
     b9c:	df 92       	push	r13
     b9e:	ef 92       	push	r14
     ba0:	ff 92       	push	r15
     ba2:	0f 93       	push	r16
     ba4:	1f 93       	push	r17
     ba6:	cf 93       	push	r28
     ba8:	df 93       	push	r29
     baa:	8c 01       	movw	r16, r24
     bac:	6b 01       	movw	r12, r22
     bae:	7a 01       	movw	r14, r20
     bb0:	80 e0       	ldi	r24, 0x00	; 0
     bb2:	f7 01       	movw	r30, r14
     bb4:	c4 91       	lpm	r28, Z
     bb6:	81 11       	cpse	r24, r1
     bb8:	0a c0       	rjmp	.+20     	; 0xbce <u8g_WriteEscSeqP+0x34>
     bba:	cf 3f       	cpi	r28, 0xFF	; 255
     bbc:	e9 f1       	breq	.+122    	; 0xc38 <u8g_WriteEscSeqP+0x9e>
     bbe:	4c 2f       	mov	r20, r28
     bc0:	b6 01       	movw	r22, r12
     bc2:	c8 01       	movw	r24, r16
     bc4:	0e 94 bd 05 	call	0xb7a	; 0xb7a <u8g_WriteByte>
     bc8:	81 11       	cpse	r24, r1
     bca:	2f c0       	rjmp	.+94     	; 0xc2a <u8g_WriteEscSeqP+0x90>
     bcc:	3a c0       	rjmp	.+116    	; 0xc42 <u8g_WriteEscSeqP+0xa8>
     bce:	cf 3f       	cpi	r28, 0xFF	; 255
     bd0:	11 f4       	brne	.+4      	; 0xbd6 <u8g_WriteEscSeqP+0x3c>
     bd2:	4f ef       	ldi	r20, 0xFF	; 255
     bd4:	f5 cf       	rjmp	.-22     	; 0xbc0 <u8g_WriteEscSeqP+0x26>
     bd6:	ce 3f       	cpi	r28, 0xFE	; 254
     bd8:	b1 f1       	breq	.+108    	; 0xc46 <u8g_WriteEscSeqP+0xac>
     bda:	c0 3f       	cpi	r28, 0xF0	; 240
     bdc:	30 f5       	brcc	.+76     	; 0xc2a <u8g_WriteEscSeqP+0x90>
     bde:	c0 3e       	cpi	r28, 0xE0	; 224
     be0:	38 f0       	brcs	.+14     	; 0xbf0 <u8g_WriteEscSeqP+0x56>
     be2:	4c 2f       	mov	r20, r28
     be4:	4f 70       	andi	r20, 0x0F	; 15
     be6:	b6 01       	movw	r22, r12
     be8:	c8 01       	movw	r24, r16
     bea:	0e 94 b4 05 	call	0xb68	; 0xb68 <u8g_SetAddress>
     bee:	1d c0       	rjmp	.+58     	; 0xc2a <u8g_WriteEscSeqP+0x90>
     bf0:	c0 3d       	cpi	r28, 0xD0	; 208
     bf2:	38 f0       	brcs	.+14     	; 0xc02 <u8g_WriteEscSeqP+0x68>
     bf4:	4c 2f       	mov	r20, r28
     bf6:	4f 70       	andi	r20, 0x0F	; 15
     bf8:	b6 01       	movw	r22, r12
     bfa:	c8 01       	movw	r24, r16
     bfc:	0e 94 97 05 	call	0xb2e	; 0xb2e <u8g_SetChipSelect>
     c00:	14 c0       	rjmp	.+40     	; 0xc2a <u8g_WriteEscSeqP+0x90>
     c02:	c0 3c       	cpi	r28, 0xC0	; 192
     c04:	a0 f0       	brcs	.+40     	; 0xc2e <u8g_WriteEscSeqP+0x94>
     c06:	b6 01       	movw	r22, r12
     c08:	c8 01       	movw	r24, r16
     c0a:	0e 94 a0 05 	call	0xb40	; 0xb40 <u8g_SetResetLow>
     c0e:	c2 95       	swap	r28
     c10:	c0 7f       	andi	r28, 0xF0	; 240
     c12:	ce 5f       	subi	r28, 0xFE	; 254
     c14:	d0 e0       	ldi	r29, 0x00	; 0
     c16:	ce 01       	movw	r24, r28
     c18:	0e 94 44 07 	call	0xe88	; 0xe88 <u8g_Delay>
     c1c:	b6 01       	movw	r22, r12
     c1e:	c8 01       	movw	r24, r16
     c20:	0e 94 aa 05 	call	0xb54	; 0xb54 <u8g_SetResetHigh>
     c24:	ce 01       	movw	r24, r28
     c26:	0e 94 44 07 	call	0xe88	; 0xe88 <u8g_Delay>
     c2a:	80 e0       	ldi	r24, 0x00	; 0
     c2c:	06 c0       	rjmp	.+12     	; 0xc3a <u8g_WriteEscSeqP+0xa0>
     c2e:	c7 fd       	sbrc	r28, 7
     c30:	fc cf       	rjmp	.-8      	; 0xc2a <u8g_WriteEscSeqP+0x90>
     c32:	8c 2f       	mov	r24, r28
     c34:	90 e0       	ldi	r25, 0x00	; 0
     c36:	f7 cf       	rjmp	.-18     	; 0xc26 <u8g_WriteEscSeqP+0x8c>
     c38:	81 e0       	ldi	r24, 0x01	; 1
     c3a:	ff ef       	ldi	r31, 0xFF	; 255
     c3c:	ef 1a       	sub	r14, r31
     c3e:	ff 0a       	sbc	r15, r31
     c40:	b8 cf       	rjmp	.-144    	; 0xbb2 <u8g_WriteEscSeqP+0x18>
     c42:	80 e0       	ldi	r24, 0x00	; 0
     c44:	01 c0       	rjmp	.+2      	; 0xc48 <u8g_WriteEscSeqP+0xae>
     c46:	81 e0       	ldi	r24, 0x01	; 1
     c48:	df 91       	pop	r29
     c4a:	cf 91       	pop	r28
     c4c:	1f 91       	pop	r17
     c4e:	0f 91       	pop	r16
     c50:	ff 90       	pop	r15
     c52:	ef 90       	pop	r14
     c54:	df 90       	pop	r13
     c56:	cf 90       	pop	r12
     c58:	08 95       	ret

00000c5a <u8g_com_arduino_ssd_start_sequence>:
     c5a:	cf 93       	push	r28
     c5c:	df 93       	push	r29
     c5e:	fc 01       	movw	r30, r24
     c60:	23 a5       	ldd	r18, Z+43	; 0x2b
     c62:	22 23       	and	r18, r18
     c64:	81 f0       	breq	.+32     	; 0xc86 <u8g_com_arduino_ssd_start_sequence+0x2c>
     c66:	ec 01       	movw	r28, r24
     c68:	88 e7       	ldi	r24, 0x78	; 120
     c6a:	0e 94 e5 06 	call	0xdca	; 0xdca <u8g_i2c_start>
     c6e:	81 11       	cpse	r24, r1
     c70:	02 c0       	rjmp	.+4      	; 0xc76 <u8g_com_arduino_ssd_start_sequence+0x1c>
     c72:	80 e0       	ldi	r24, 0x00	; 0
     c74:	09 c0       	rjmp	.+18     	; 0xc88 <u8g_com_arduino_ssd_start_sequence+0x2e>
     c76:	8e a1       	ldd	r24, Y+38	; 0x26
     c78:	81 11       	cpse	r24, r1
     c7a:	80 e4       	ldi	r24, 0x40	; 64
     c7c:	0e 94 1c 07 	call	0xe38	; 0xe38 <u8g_i2c_send_byte>
     c80:	88 23       	and	r24, r24
     c82:	b9 f3       	breq	.-18     	; 0xc72 <u8g_com_arduino_ssd_start_sequence+0x18>
     c84:	1b a6       	std	Y+43, r1	; 0x2b
     c86:	81 e0       	ldi	r24, 0x01	; 1
     c88:	df 91       	pop	r29
     c8a:	cf 91       	pop	r28
     c8c:	08 95       	ret

00000c8e <u8g_com_arduino_ssd_i2c_fn>:
     c8e:	0f 93       	push	r16
     c90:	1f 93       	push	r17
     c92:	cf 93       	push	r28
     c94:	c4 2f       	mov	r28, r20
     c96:	89 01       	movw	r16, r18
     c98:	63 30       	cpi	r22, 0x03	; 3
     c9a:	c1 f0       	breq	.+48     	; 0xccc <u8g_com_arduino_ssd_i2c_fn+0x3e>
     c9c:	50 f4       	brcc	.+20     	; 0xcb2 <u8g_com_arduino_ssd_i2c_fn+0x24>
     c9e:	61 30       	cpi	r22, 0x01	; 1
     ca0:	81 f0       	breq	.+32     	; 0xcc2 <u8g_com_arduino_ssd_i2c_fn+0x34>
     ca2:	62 30       	cpi	r22, 0x02	; 2
     ca4:	09 f0       	breq	.+2      	; 0xca8 <u8g_com_arduino_ssd_i2c_fn+0x1a>
     ca6:	48 c0       	rjmp	.+144    	; 0xd38 <u8g_com_arduino_ssd_i2c_fn+0xaa>
     ca8:	fc 01       	movw	r30, r24
     caa:	46 a3       	std	Z+38, r20	; 0x26
     cac:	21 e0       	ldi	r18, 0x01	; 1
     cae:	23 a7       	std	Z+43, r18	; 0x2b
     cb0:	43 c0       	rjmp	.+134    	; 0xd38 <u8g_com_arduino_ssd_i2c_fn+0xaa>
     cb2:	66 30       	cpi	r22, 0x06	; 6
     cb4:	11 f1       	breq	.+68     	; 0xcfa <u8g_com_arduino_ssd_i2c_fn+0x6c>
     cb6:	67 30       	cpi	r22, 0x07	; 7
     cb8:	79 f1       	breq	.+94     	; 0xd18 <u8g_com_arduino_ssd_i2c_fn+0x8a>
     cba:	65 30       	cpi	r22, 0x05	; 5
     cbc:	09 f0       	breq	.+2      	; 0xcc0 <u8g_com_arduino_ssd_i2c_fn+0x32>
     cbe:	3c c0       	rjmp	.+120    	; 0xd38 <u8g_com_arduino_ssd_i2c_fn+0xaa>
     cc0:	0e c0       	rjmp	.+28     	; 0xcde <u8g_com_arduino_ssd_i2c_fn+0x50>
     cc2:	fc 01       	movw	r30, r24
     cc4:	86 a5       	ldd	r24, Z+46	; 0x2e
     cc6:	0e 94 af 06 	call	0xd5e	; 0xd5e <u8g_i2c_init>
     cca:	36 c0       	rjmp	.+108    	; 0xd38 <u8g_com_arduino_ssd_i2c_fn+0xaa>
     ccc:	fc 01       	movw	r30, r24
     cce:	16 a2       	std	Z+38, r1	; 0x26
     cd0:	21 e0       	ldi	r18, 0x01	; 1
     cd2:	23 a7       	std	Z+43, r18	; 0x2b
     cd4:	41 11       	cpse	r20, r1
     cd6:	30 c0       	rjmp	.+96     	; 0xd38 <u8g_com_arduino_ssd_i2c_fn+0xaa>
     cd8:	0e 94 3d 07 	call	0xe7a	; 0xe7a <u8g_i2c_stop>
     cdc:	2d c0       	rjmp	.+90     	; 0xd38 <u8g_com_arduino_ssd_i2c_fn+0xaa>
     cde:	0e 94 2d 06 	call	0xc5a	; 0xc5a <u8g_com_arduino_ssd_start_sequence>
     ce2:	81 11       	cpse	r24, r1
     ce4:	04 c0       	rjmp	.+8      	; 0xcee <u8g_com_arduino_ssd_i2c_fn+0x60>
     ce6:	0e 94 3d 07 	call	0xe7a	; 0xe7a <u8g_i2c_stop>
     cea:	80 e0       	ldi	r24, 0x00	; 0
     cec:	26 c0       	rjmp	.+76     	; 0xd3a <u8g_com_arduino_ssd_i2c_fn+0xac>
     cee:	8c 2f       	mov	r24, r28
     cf0:	0e 94 1c 07 	call	0xe38	; 0xe38 <u8g_i2c_send_byte>
     cf4:	81 11       	cpse	r24, r1
     cf6:	20 c0       	rjmp	.+64     	; 0xd38 <u8g_com_arduino_ssd_i2c_fn+0xaa>
     cf8:	f6 cf       	rjmp	.-20     	; 0xce6 <u8g_com_arduino_ssd_i2c_fn+0x58>
     cfa:	0e 94 2d 06 	call	0xc5a	; 0xc5a <u8g_com_arduino_ssd_start_sequence>
     cfe:	88 23       	and	r24, r24
     d00:	91 f3       	breq	.-28     	; 0xce6 <u8g_com_arduino_ssd_i2c_fn+0x58>
     d02:	cc 23       	and	r28, r28
     d04:	c9 f0       	breq	.+50     	; 0xd38 <u8g_com_arduino_ssd_i2c_fn+0xaa>
     d06:	f8 01       	movw	r30, r16
     d08:	81 91       	ld	r24, Z+
     d0a:	8f 01       	movw	r16, r30
     d0c:	0e 94 1c 07 	call	0xe38	; 0xe38 <u8g_i2c_send_byte>
     d10:	88 23       	and	r24, r24
     d12:	49 f3       	breq	.-46     	; 0xce6 <u8g_com_arduino_ssd_i2c_fn+0x58>
     d14:	c1 50       	subi	r28, 0x01	; 1
     d16:	f5 cf       	rjmp	.-22     	; 0xd02 <u8g_com_arduino_ssd_i2c_fn+0x74>
     d18:	0e 94 2d 06 	call	0xc5a	; 0xc5a <u8g_com_arduino_ssd_start_sequence>
     d1c:	88 23       	and	r24, r24
     d1e:	19 f3       	breq	.-58     	; 0xce6 <u8g_com_arduino_ssd_i2c_fn+0x58>
     d20:	cc 23       	and	r28, r28
     d22:	51 f0       	breq	.+20     	; 0xd38 <u8g_com_arduino_ssd_i2c_fn+0xaa>
     d24:	f8 01       	movw	r30, r16
     d26:	84 91       	lpm	r24, Z
     d28:	0e 94 1c 07 	call	0xe38	; 0xe38 <u8g_i2c_send_byte>
     d2c:	88 23       	and	r24, r24
     d2e:	29 f0       	breq	.+10     	; 0xd3a <u8g_com_arduino_ssd_i2c_fn+0xac>
     d30:	0f 5f       	subi	r16, 0xFF	; 255
     d32:	1f 4f       	sbci	r17, 0xFF	; 255
     d34:	c1 50       	subi	r28, 0x01	; 1
     d36:	f4 cf       	rjmp	.-24     	; 0xd20 <u8g_com_arduino_ssd_i2c_fn+0x92>
     d38:	81 e0       	ldi	r24, 0x01	; 1
     d3a:	cf 91       	pop	r28
     d3c:	1f 91       	pop	r17
     d3e:	0f 91       	pop	r16
     d40:	08 95       	ret

00000d42 <u8g_i2c_set_error>:
     d42:	90 91 34 01 	lds	r25, 0x0134	; 0x800134 <u8g_i2c_err_code>
     d46:	91 11       	cpse	r25, r1
     d48:	04 c0       	rjmp	.+8      	; 0xd52 <u8g_i2c_set_error+0x10>
     d4a:	80 93 34 01 	sts	0x0134, r24	; 0x800134 <u8g_i2c_err_code>
     d4e:	60 93 32 01 	sts	0x0132, r22	; 0x800132 <u8g_i2c_err_pos>
     d52:	08 95       	ret

00000d54 <u8g_i2c_clear_error>:
     d54:	10 92 34 01 	sts	0x0134, r1	; 0x800134 <u8g_i2c_err_code>
     d58:	10 92 32 01 	sts	0x0132, r1	; 0x800132 <u8g_i2c_err_pos>
     d5c:	08 95       	ret

00000d5e <u8g_i2c_init>:
     d5e:	80 93 33 01 	sts	0x0133, r24	; 0x800133 <u8g_i2c_opt>
     d62:	10 92 b9 00 	sts	0x00B9, r1	; 0x8000b9 <__TEXT_REGION_LENGTH__+0x7e00b9>
     d66:	84 ff       	sbrs	r24, 4
     d68:	02 c0       	rjmp	.+4      	; 0xd6e <u8g_i2c_init+0x10>
     d6a:	82 e0       	ldi	r24, 0x02	; 2
     d6c:	01 c0       	rjmp	.+2      	; 0xd70 <u8g_i2c_init+0x12>
     d6e:	80 e2       	ldi	r24, 0x20	; 32
     d70:	80 93 b8 00 	sts	0x00B8, r24	; 0x8000b8 <__TEXT_REGION_LENGTH__+0x7e00b8>
     d74:	0c 94 aa 06 	jmp	0xd54	; 0xd54 <u8g_i2c_clear_error>

00000d78 <u8g_i2c_wait>:
     d78:	1f 93       	push	r17
     d7a:	cf 93       	push	r28
     d7c:	df 93       	push	r29
     d7e:	00 d0       	rcall	.+0      	; 0xd80 <u8g_i2c_wait+0x8>
     d80:	cd b7       	in	r28, 0x3d	; 61
     d82:	de b7       	in	r29, 0x3e	; 62
     d84:	20 ed       	ldi	r18, 0xD0	; 208
     d86:	37 e0       	ldi	r19, 0x07	; 7
     d88:	3a 83       	std	Y+2, r19	; 0x02
     d8a:	29 83       	std	Y+1, r18	; 0x01
     d8c:	90 91 bc 00 	lds	r25, 0x00BC	; 0x8000bc <__TEXT_REGION_LENGTH__+0x7e00bc>
     d90:	98 23       	and	r25, r24
     d92:	99 f4       	brne	.+38     	; 0xdba <u8g_i2c_wait+0x42>
     d94:	29 81       	ldd	r18, Y+1	; 0x01
     d96:	3a 81       	ldd	r19, Y+2	; 0x02
     d98:	23 2b       	or	r18, r19
     d9a:	51 f4       	brne	.+20     	; 0xdb0 <u8g_i2c_wait+0x38>
     d9c:	80 91 33 01 	lds	r24, 0x0133	; 0x800133 <u8g_i2c_opt>
     da0:	18 2f       	mov	r17, r24
     da2:	12 70       	andi	r17, 0x02	; 2
     da4:	81 fd       	sbrc	r24, 1
     da6:	09 c0       	rjmp	.+18     	; 0xdba <u8g_i2c_wait+0x42>
     da8:	81 e0       	ldi	r24, 0x01	; 1
     daa:	0e 94 a1 06 	call	0xd42	; 0xd42 <u8g_i2c_set_error>
     dae:	06 c0       	rjmp	.+12     	; 0xdbc <u8g_i2c_wait+0x44>
     db0:	29 81       	ldd	r18, Y+1	; 0x01
     db2:	3a 81       	ldd	r19, Y+2	; 0x02
     db4:	21 50       	subi	r18, 0x01	; 1
     db6:	31 09       	sbc	r19, r1
     db8:	e7 cf       	rjmp	.-50     	; 0xd88 <u8g_i2c_wait+0x10>
     dba:	11 e0       	ldi	r17, 0x01	; 1
     dbc:	81 2f       	mov	r24, r17
     dbe:	0f 90       	pop	r0
     dc0:	0f 90       	pop	r0
     dc2:	df 91       	pop	r29
     dc4:	cf 91       	pop	r28
     dc6:	1f 91       	pop	r17
     dc8:	08 95       	ret

00000dca <u8g_i2c_start>:
     dca:	cf 93       	push	r28
     dcc:	c8 2f       	mov	r28, r24
     dce:	84 ea       	ldi	r24, 0xA4	; 164
     dd0:	80 93 bc 00 	sts	0x00BC, r24	; 0x8000bc <__TEXT_REGION_LENGTH__+0x7e00bc>
     dd4:	61 e0       	ldi	r22, 0x01	; 1
     dd6:	80 e8       	ldi	r24, 0x80	; 128
     dd8:	0e 94 bc 06 	call	0xd78	; 0xd78 <u8g_i2c_wait>
     ddc:	88 23       	and	r24, r24
     dde:	59 f0       	breq	.+22     	; 0xdf6 <u8g_i2c_start+0x2c>
     de0:	80 91 b9 00 	lds	r24, 0x00B9	; 0x8000b9 <__TEXT_REGION_LENGTH__+0x7e00b9>
     de4:	88 7f       	andi	r24, 0xF8	; 248
     de6:	88 30       	cpi	r24, 0x08	; 8
     de8:	41 f0       	breq	.+16     	; 0xdfa <u8g_i2c_start+0x30>
     dea:	80 31       	cpi	r24, 0x10	; 16
     dec:	31 f0       	breq	.+12     	; 0xdfa <u8g_i2c_start+0x30>
     dee:	61 e0       	ldi	r22, 0x01	; 1
     df0:	82 e0       	ldi	r24, 0x02	; 2
     df2:	0e 94 a1 06 	call	0xd42	; 0xd42 <u8g_i2c_set_error>
     df6:	c0 e0       	ldi	r28, 0x00	; 0
     df8:	1c c0       	rjmp	.+56     	; 0xe32 <u8g_i2c_start+0x68>
     dfa:	c0 93 bb 00 	sts	0x00BB, r28	; 0x8000bb <__TEXT_REGION_LENGTH__+0x7e00bb>
     dfe:	84 e8       	ldi	r24, 0x84	; 132
     e00:	80 93 bc 00 	sts	0x00BC, r24	; 0x8000bc <__TEXT_REGION_LENGTH__+0x7e00bc>
     e04:	62 e0       	ldi	r22, 0x02	; 2
     e06:	80 e8       	ldi	r24, 0x80	; 128
     e08:	0e 94 bc 06 	call	0xd78	; 0xd78 <u8g_i2c_wait>
     e0c:	88 23       	and	r24, r24
     e0e:	99 f3       	breq	.-26     	; 0xdf6 <u8g_i2c_start+0x2c>
     e10:	80 91 33 01 	lds	r24, 0x0133	; 0x800133 <u8g_i2c_opt>
     e14:	c8 2f       	mov	r28, r24
     e16:	c2 70       	andi	r28, 0x02	; 2
     e18:	81 fd       	sbrc	r24, 1
     e1a:	0a c0       	rjmp	.+20     	; 0xe30 <u8g_i2c_start+0x66>
     e1c:	80 91 b9 00 	lds	r24, 0x00B9	; 0x8000b9 <__TEXT_REGION_LENGTH__+0x7e00b9>
     e20:	88 7f       	andi	r24, 0xF8	; 248
     e22:	88 31       	cpi	r24, 0x18	; 24
     e24:	29 f0       	breq	.+10     	; 0xe30 <u8g_i2c_start+0x66>
     e26:	62 e0       	ldi	r22, 0x02	; 2
     e28:	82 e0       	ldi	r24, 0x02	; 2
     e2a:	0e 94 a1 06 	call	0xd42	; 0xd42 <u8g_i2c_set_error>
     e2e:	01 c0       	rjmp	.+2      	; 0xe32 <u8g_i2c_start+0x68>
     e30:	c1 e0       	ldi	r28, 0x01	; 1
     e32:	8c 2f       	mov	r24, r28
     e34:	cf 91       	pop	r28
     e36:	08 95       	ret

00000e38 <u8g_i2c_send_byte>:
     e38:	cf 93       	push	r28
     e3a:	80 93 bb 00 	sts	0x00BB, r24	; 0x8000bb <__TEXT_REGION_LENGTH__+0x7e00bb>
     e3e:	84 e8       	ldi	r24, 0x84	; 132
     e40:	80 93 bc 00 	sts	0x00BC, r24	; 0x8000bc <__TEXT_REGION_LENGTH__+0x7e00bc>
     e44:	63 e0       	ldi	r22, 0x03	; 3
     e46:	80 e8       	ldi	r24, 0x80	; 128
     e48:	0e 94 bc 06 	call	0xd78	; 0xd78 <u8g_i2c_wait>
     e4c:	c8 2f       	mov	r28, r24
     e4e:	88 23       	and	r24, r24
     e50:	89 f0       	breq	.+34     	; 0xe74 <u8g_i2c_send_byte+0x3c>
     e52:	80 91 33 01 	lds	r24, 0x0133	; 0x800133 <u8g_i2c_opt>
     e56:	c8 2f       	mov	r28, r24
     e58:	c2 70       	andi	r28, 0x02	; 2
     e5a:	81 fd       	sbrc	r24, 1
     e5c:	0a c0       	rjmp	.+20     	; 0xe72 <u8g_i2c_send_byte+0x3a>
     e5e:	80 91 b9 00 	lds	r24, 0x00B9	; 0x8000b9 <__TEXT_REGION_LENGTH__+0x7e00b9>
     e62:	88 7f       	andi	r24, 0xF8	; 248
     e64:	88 32       	cpi	r24, 0x28	; 40
     e66:	29 f0       	breq	.+10     	; 0xe72 <u8g_i2c_send_byte+0x3a>
     e68:	63 e0       	ldi	r22, 0x03	; 3
     e6a:	82 e0       	ldi	r24, 0x02	; 2
     e6c:	0e 94 a1 06 	call	0xd42	; 0xd42 <u8g_i2c_set_error>
     e70:	01 c0       	rjmp	.+2      	; 0xe74 <u8g_i2c_send_byte+0x3c>
     e72:	c1 e0       	ldi	r28, 0x01	; 1
     e74:	8c 2f       	mov	r24, r28
     e76:	cf 91       	pop	r28
     e78:	08 95       	ret

00000e7a <u8g_i2c_stop>:
     e7a:	84 e9       	ldi	r24, 0x94	; 148
     e7c:	80 93 bc 00 	sts	0x00BC, r24	; 0x8000bc <__TEXT_REGION_LENGTH__+0x7e00bc>
     e80:	64 e0       	ldi	r22, 0x04	; 4
     e82:	80 e1       	ldi	r24, 0x10	; 16
     e84:	0c 94 bc 06 	jmp	0xd78	; 0xd78 <u8g_i2c_wait>

00000e88 <u8g_Delay>:
     e88:	2e ec       	ldi	r18, 0xCE	; 206
     e8a:	37 e0       	ldi	r19, 0x07	; 7
     e8c:	00 97       	sbiw	r24, 0x00	; 0
     e8e:	29 f0       	breq	.+10     	; 0xe9a <u8g_Delay+0x12>
     e90:	f9 01       	movw	r30, r18
     e92:	31 97       	sbiw	r30, 0x01	; 1
     e94:	f1 f7       	brne	.-4      	; 0xe92 <u8g_Delay+0xa>
     e96:	01 97       	sbiw	r24, 0x01	; 1
     e98:	f9 cf       	rjmp	.-14     	; 0xe8c <u8g_Delay+0x4>
     e9a:	08 95       	ret

00000e9c <u8g_dev_sh1106_128x64_fn>:
     e9c:	af 92       	push	r10
     e9e:	bf 92       	push	r11
     ea0:	cf 92       	push	r12
     ea2:	df 92       	push	r13
     ea4:	ff 92       	push	r15
     ea6:	0f 93       	push	r16
     ea8:	1f 93       	push	r17
     eaa:	cf 93       	push	r28
     eac:	df 93       	push	r29
     eae:	8c 01       	movw	r16, r24
     eb0:	eb 01       	movw	r28, r22
     eb2:	f4 2e       	mov	r15, r20
     eb4:	69 01       	movw	r12, r18
     eb6:	80 e1       	ldi	r24, 0x10	; 16
     eb8:	48 17       	cp	r20, r24
     eba:	b1 f1       	breq	.+108    	; 0xf28 <u8g_dev_sh1106_128x64_fn+0x8c>
     ebc:	84 17       	cp	r24, r20
     ebe:	70 f0       	brcs	.+28     	; 0xedc <u8g_dev_sh1106_128x64_fn+0x40>
     ec0:	ea e0       	ldi	r30, 0x0A	; 10
     ec2:	4e 13       	cpse	r20, r30
     ec4:	3c c0       	rjmp	.+120    	; 0xf3e <u8g_dev_sh1106_128x64_fn+0xa2>
     ec6:	42 e0       	ldi	r20, 0x02	; 2
     ec8:	c8 01       	movw	r24, r16
     eca:	0e 94 8e 05 	call	0xb1c	; 0xb1c <u8g_InitCom>
     ece:	44 e8       	ldi	r20, 0x84	; 132
     ed0:	50 e0       	ldi	r21, 0x00	; 0
     ed2:	be 01       	movw	r22, r28
     ed4:	c8 01       	movw	r24, r16
     ed6:	0e 94 cd 05 	call	0xb9a	; 0xb9a <u8g_WriteEscSeqP>
     eda:	31 c0       	rjmp	.+98     	; 0xf3e <u8g_dev_sh1106_128x64_fn+0xa2>
     edc:	f1 e1       	ldi	r31, 0x11	; 17
     ede:	4f 17       	cp	r20, r31
     ee0:	31 f1       	breq	.+76     	; 0xf2e <u8g_dev_sh1106_128x64_fn+0x92>
     ee2:	85 e1       	ldi	r24, 0x15	; 21
     ee4:	48 13       	cpse	r20, r24
     ee6:	2b c0       	rjmp	.+86     	; 0xf3e <u8g_dev_sh1106_128x64_fn+0xa2>
     ee8:	aa 80       	ldd	r10, Y+2	; 0x02
     eea:	bb 80       	ldd	r11, Y+3	; 0x03
     eec:	4c e7       	ldi	r20, 0x7C	; 124
     eee:	50 e0       	ldi	r21, 0x00	; 0
     ef0:	c8 01       	movw	r24, r16
     ef2:	0e 94 cd 05 	call	0xb9a	; 0xb9a <u8g_WriteEscSeqP>
     ef6:	f5 01       	movw	r30, r10
     ef8:	44 81       	ldd	r20, Z+4	; 0x04
     efa:	40 6b       	ori	r20, 0xB0	; 176
     efc:	be 01       	movw	r22, r28
     efe:	c8 01       	movw	r24, r16
     f00:	0e 94 bd 05 	call	0xb7a	; 0xb7a <u8g_WriteByte>
     f04:	41 e0       	ldi	r20, 0x01	; 1
     f06:	be 01       	movw	r22, r28
     f08:	c8 01       	movw	r24, r16
     f0a:	0e 94 b4 05 	call	0xb68	; 0xb68 <u8g_SetAddress>
     f0e:	ae 01       	movw	r20, r28
     f10:	b8 01       	movw	r22, r16
     f12:	c5 01       	movw	r24, r10
     f14:	0e 94 38 0b 	call	0x1670	; 0x1670 <u8g_pb_WriteBuffer>
     f18:	88 23       	and	r24, r24
     f1a:	01 f1       	breq	.+64     	; 0xf5c <u8g_dev_sh1106_128x64_fn+0xc0>
     f1c:	40 e0       	ldi	r20, 0x00	; 0
     f1e:	be 01       	movw	r22, r28
     f20:	c8 01       	movw	r24, r16
     f22:	0e 94 97 05 	call	0xb2e	; 0xb2e <u8g_SetChipSelect>
     f26:	0b c0       	rjmp	.+22     	; 0xf3e <u8g_dev_sh1106_128x64_fn+0xa2>
     f28:	43 e7       	ldi	r20, 0x73	; 115
     f2a:	50 e0       	ldi	r21, 0x00	; 0
     f2c:	02 c0       	rjmp	.+4      	; 0xf32 <u8g_dev_sh1106_128x64_fn+0x96>
     f2e:	48 e6       	ldi	r20, 0x68	; 104
     f30:	50 e0       	ldi	r21, 0x00	; 0
     f32:	be 01       	movw	r22, r28
     f34:	c8 01       	movw	r24, r16
     f36:	0e 94 cd 05 	call	0xb9a	; 0xb9a <u8g_WriteEscSeqP>
     f3a:	81 e0       	ldi	r24, 0x01	; 1
     f3c:	0f c0       	rjmp	.+30     	; 0xf5c <u8g_dev_sh1106_128x64_fn+0xc0>
     f3e:	96 01       	movw	r18, r12
     f40:	4f 2d       	mov	r20, r15
     f42:	be 01       	movw	r22, r28
     f44:	c8 01       	movw	r24, r16
     f46:	df 91       	pop	r29
     f48:	cf 91       	pop	r28
     f4a:	1f 91       	pop	r17
     f4c:	0f 91       	pop	r16
     f4e:	ff 90       	pop	r15
     f50:	df 90       	pop	r13
     f52:	cf 90       	pop	r12
     f54:	bf 90       	pop	r11
     f56:	af 90       	pop	r10
     f58:	0c 94 a4 0b 	jmp	0x1748	; 0x1748 <u8g_dev_pb8v1_base_fn>
     f5c:	df 91       	pop	r29
     f5e:	cf 91       	pop	r28
     f60:	1f 91       	pop	r17
     f62:	0f 91       	pop	r16
     f64:	ff 90       	pop	r15
     f66:	df 90       	pop	r13
     f68:	cf 90       	pop	r12
     f6a:	bf 90       	pop	r11
     f6c:	af 90       	pop	r10
     f6e:	08 95       	ret

00000f70 <u8g_font_get_word>:
     f70:	fc 01       	movw	r30, r24
     f72:	e6 0f       	add	r30, r22
     f74:	f1 1d       	adc	r31, r1
     f76:	84 91       	lpm	r24, Z
     f78:	90 e0       	ldi	r25, 0x00	; 0
     f7a:	98 2f       	mov	r25, r24
     f7c:	88 27       	eor	r24, r24
     f7e:	31 96       	adiw	r30, 0x01	; 1
     f80:	e4 91       	lpm	r30, Z
     f82:	8e 0f       	add	r24, r30
     f84:	91 1d       	adc	r25, r1
     f86:	08 95       	ret

00000f88 <u8g_font_GetFormat>:
     f88:	fc 01       	movw	r30, r24
     f8a:	84 91       	lpm	r24, Z
     f8c:	08 95       	ret

00000f8e <u8g_font_GetFontGlyphStructureSize>:
     f8e:	0e 94 c4 07 	call	0xf88	; 0xf88 <u8g_font_GetFormat>
     f92:	88 23       	and	r24, r24
     f94:	21 f0       	breq	.+8      	; 0xf9e <u8g_font_GetFontGlyphStructureSize+0x10>
     f96:	82 30       	cpi	r24, 0x02	; 2
     f98:	11 f0       	breq	.+4      	; 0xf9e <u8g_font_GetFontGlyphStructureSize+0x10>
     f9a:	83 e0       	ldi	r24, 0x03	; 3
     f9c:	08 95       	ret
     f9e:	86 e0       	ldi	r24, 0x06	; 6
     fa0:	08 95       	ret

00000fa2 <u8g_font_calc_vref_font>:
     fa2:	80 e0       	ldi	r24, 0x00	; 0
     fa4:	08 95       	ret

00000fa6 <u8g_font_GetEncoding65Pos>:
     fa6:	66 e0       	ldi	r22, 0x06	; 6
     fa8:	0c 94 b8 07 	jmp	0xf70	; 0xf70 <u8g_font_get_word>

00000fac <u8g_font_GetEncoding97Pos>:
     fac:	68 e0       	ldi	r22, 0x08	; 8
     fae:	0c 94 b8 07 	jmp	0xf70	; 0xf70 <u8g_font_get_word>

00000fb2 <u8g_font_GetFontStartEncoding>:
     fb2:	0a 96       	adiw	r24, 0x0a	; 10
     fb4:	fc 01       	movw	r30, r24
     fb6:	84 91       	lpm	r24, Z
     fb8:	08 95       	ret

00000fba <u8g_font_GetFontEndEncoding>:
     fba:	0b 96       	adiw	r24, 0x0b	; 11
     fbc:	fc 01       	movw	r30, r24
     fbe:	84 91       	lpm	r24, Z
     fc0:	08 95       	ret

00000fc2 <u8g_GetGlyph>:
     fc2:	bf 92       	push	r11
     fc4:	cf 92       	push	r12
     fc6:	df 92       	push	r13
     fc8:	ef 92       	push	r14
     fca:	ff 92       	push	r15
     fcc:	0f 93       	push	r16
     fce:	1f 93       	push	r17
     fd0:	cf 93       	push	r28
     fd2:	df 93       	push	r29
     fd4:	8c 01       	movw	r16, r24
     fd6:	e6 2e       	mov	r14, r22
     fd8:	dc 01       	movw	r26, r24
     fda:	14 96       	adiw	r26, 0x04	; 4
     fdc:	cd 91       	ld	r28, X+
     fde:	dc 91       	ld	r29, X
     fe0:	15 97       	sbiw	r26, 0x05	; 5
     fe2:	ce 01       	movw	r24, r28
     fe4:	0e 94 c4 07 	call	0xf88	; 0xf88 <u8g_font_GetFormat>
     fe8:	f8 2e       	mov	r15, r24
     fea:	f8 01       	movw	r30, r16
     fec:	84 81       	ldd	r24, Z+4	; 0x04
     fee:	95 81       	ldd	r25, Z+5	; 0x05
     ff0:	0e 94 c7 07 	call	0xf8e	; 0xf8e <u8g_font_GetFontGlyphStructureSize>
     ff4:	c8 2e       	mov	r12, r24
     ff6:	f1 e0       	ldi	r31, 0x01	; 1
     ff8:	ff 12       	cpse	r15, r31
     ffa:	03 c0       	rjmp	.+6      	; 0x1002 <u8g_GetGlyph+0x40>
     ffc:	2f e0       	ldi	r18, 0x0F	; 15
     ffe:	b2 2e       	mov	r11, r18
    1000:	02 c0       	rjmp	.+4      	; 0x1006 <u8g_GetGlyph+0x44>
    1002:	bb 24       	eor	r11, r11
    1004:	ba 94       	dec	r11
    1006:	d8 01       	movw	r26, r16
    1008:	14 96       	adiw	r26, 0x04	; 4
    100a:	8d 91       	ld	r24, X+
    100c:	9c 91       	ld	r25, X
    100e:	15 97       	sbiw	r26, 0x05	; 5
    1010:	0e 94 d9 07 	call	0xfb2	; 0xfb2 <u8g_font_GetFontStartEncoding>
    1014:	f8 2e       	mov	r15, r24
    1016:	f8 01       	movw	r30, r16
    1018:	84 81       	ldd	r24, Z+4	; 0x04
    101a:	95 81       	ldd	r25, Z+5	; 0x05
    101c:	0e 94 dd 07 	call	0xfba	; 0xfba <u8g_font_GetFontEndEncoding>
    1020:	d8 2e       	mov	r13, r24
    1022:	d8 01       	movw	r26, r16
    1024:	14 96       	adiw	r26, 0x04	; 4
    1026:	8d 91       	ld	r24, X+
    1028:	9c 91       	ld	r25, X
    102a:	15 97       	sbiw	r26, 0x05	; 5
    102c:	0e 94 d6 07 	call	0xfac	; 0xfac <u8g_font_GetEncoding97Pos>
    1030:	b0 e6       	ldi	r27, 0x60	; 96
    1032:	be 15       	cp	r27, r14
    1034:	38 f4       	brcc	.+14     	; 0x1044 <u8g_GetGlyph+0x82>
    1036:	00 97       	sbiw	r24, 0x00	; 0
    1038:	29 f0       	breq	.+10     	; 0x1044 <u8g_GetGlyph+0x82>
    103a:	c8 0f       	add	r28, r24
    103c:	d9 1f       	adc	r29, r25
    103e:	91 e6       	ldi	r25, 0x61	; 97
    1040:	f9 2e       	mov	r15, r25
    1042:	10 c0       	rjmp	.+32     	; 0x1064 <u8g_GetGlyph+0xa2>
    1044:	f8 01       	movw	r30, r16
    1046:	84 81       	ldd	r24, Z+4	; 0x04
    1048:	95 81       	ldd	r25, Z+5	; 0x05
    104a:	0e 94 d3 07 	call	0xfa6	; 0xfa6 <u8g_font_GetEncoding65Pos>
    104e:	f0 e4       	ldi	r31, 0x40	; 64
    1050:	fe 15       	cp	r31, r14
    1052:	38 f4       	brcc	.+14     	; 0x1062 <u8g_GetGlyph+0xa0>
    1054:	00 97       	sbiw	r24, 0x00	; 0
    1056:	29 f0       	breq	.+10     	; 0x1062 <u8g_GetGlyph+0xa0>
    1058:	c8 0f       	add	r28, r24
    105a:	d9 1f       	adc	r29, r25
    105c:	81 e4       	ldi	r24, 0x41	; 65
    105e:	f8 2e       	mov	r15, r24
    1060:	01 c0       	rjmp	.+2      	; 0x1064 <u8g_GetGlyph+0xa2>
    1062:	61 96       	adiw	r28, 0x11	; 17
    1064:	de 14       	cp	r13, r14
    1066:	90 f4       	brcc	.+36     	; 0x108c <u8g_GetGlyph+0xca>
    1068:	d8 01       	movw	r26, r16
    106a:	50 96       	adiw	r26, 0x10	; 16
    106c:	1c 92       	st	X, r1
    106e:	50 97       	sbiw	r26, 0x10	; 16
    1070:	53 96       	adiw	r26, 0x13	; 19
    1072:	1c 92       	st	X, r1
    1074:	53 97       	sbiw	r26, 0x13	; 19
    1076:	54 96       	adiw	r26, 0x14	; 20
    1078:	1c 92       	st	X, r1
    107a:	54 97       	sbiw	r26, 0x14	; 20
    107c:	51 96       	adiw	r26, 0x11	; 17
    107e:	1c 92       	st	X, r1
    1080:	51 97       	sbiw	r26, 0x11	; 17
    1082:	52 96       	adiw	r26, 0x12	; 18
    1084:	1c 92       	st	X, r1
    1086:	80 e0       	ldi	r24, 0x00	; 0
    1088:	90 e0       	ldi	r25, 0x00	; 0
    108a:	67 c0       	rjmp	.+206    	; 0x115a <u8g_GetGlyph+0x198>
    108c:	df 14       	cp	r13, r15
    108e:	60 f3       	brcs	.-40     	; 0x1068 <u8g_GetGlyph+0xa6>
    1090:	8c 2d       	mov	r24, r12
    1092:	90 e0       	ldi	r25, 0x00	; 0
    1094:	fe 01       	movw	r30, r28
    1096:	24 91       	lpm	r18, Z
    1098:	2f 3f       	cpi	r18, 0xFF	; 255
    109a:	11 f4       	brne	.+4      	; 0x10a0 <u8g_GetGlyph+0xde>
    109c:	21 96       	adiw	r28, 0x01	; 1
    109e:	58 c0       	rjmp	.+176    	; 0x1150 <u8g_GetGlyph+0x18e>
    10a0:	fe 10       	cpse	r15, r14
    10a2:	4d c0       	rjmp	.+154    	; 0x113e <u8g_GetGlyph+0x17c>
    10a4:	d8 01       	movw	r26, r16
    10a6:	14 96       	adiw	r26, 0x04	; 4
    10a8:	8d 91       	ld	r24, X+
    10aa:	9c 91       	ld	r25, X
    10ac:	15 97       	sbiw	r26, 0x05	; 5
    10ae:	0e 94 c4 07 	call	0xf88	; 0xf88 <u8g_font_GetFormat>
    10b2:	9e 01       	movw	r18, r28
    10b4:	2f 5f       	subi	r18, 0xFF	; 255
    10b6:	3f 4f       	sbci	r19, 0xFF	; 255
    10b8:	fe 01       	movw	r30, r28
    10ba:	88 23       	and	r24, r24
    10bc:	11 f0       	breq	.+4      	; 0x10c2 <u8g_GetGlyph+0x100>
    10be:	82 30       	cpi	r24, 0x02	; 2
    10c0:	e1 f4       	brne	.+56     	; 0x10fa <u8g_GetGlyph+0x138>
    10c2:	84 91       	lpm	r24, Z
    10c4:	d8 01       	movw	r26, r16
    10c6:	53 96       	adiw	r26, 0x13	; 19
    10c8:	8c 93       	st	X, r24
    10ca:	53 97       	sbiw	r26, 0x13	; 19
    10cc:	f9 01       	movw	r30, r18
    10ce:	24 91       	lpm	r18, Z
    10d0:	54 96       	adiw	r26, 0x14	; 20
    10d2:	2c 93       	st	X, r18
    10d4:	54 97       	sbiw	r26, 0x14	; 20
    10d6:	fe 01       	movw	r30, r28
    10d8:	33 96       	adiw	r30, 0x03	; 3
    10da:	e4 91       	lpm	r30, Z
    10dc:	50 96       	adiw	r26, 0x10	; 16
    10de:	ec 93       	st	X, r30
    10e0:	50 97       	sbiw	r26, 0x10	; 16
    10e2:	fe 01       	movw	r30, r28
    10e4:	34 96       	adiw	r30, 0x04	; 4
    10e6:	e4 91       	lpm	r30, Z
    10e8:	51 96       	adiw	r26, 0x11	; 17
    10ea:	ec 93       	st	X, r30
    10ec:	51 97       	sbiw	r26, 0x11	; 17
    10ee:	fe 01       	movw	r30, r28
    10f0:	35 96       	adiw	r30, 0x05	; 5
    10f2:	e4 91       	lpm	r30, Z
    10f4:	52 96       	adiw	r26, 0x12	; 18
    10f6:	ec 93       	st	X, r30
    10f8:	20 c0       	rjmp	.+64     	; 0x113a <u8g_GetGlyph+0x178>
    10fa:	84 91       	lpm	r24, Z
    10fc:	98 2f       	mov	r25, r24
    10fe:	9f 70       	andi	r25, 0x0F	; 15
    1100:	92 50       	subi	r25, 0x02	; 2
    1102:	d8 01       	movw	r26, r16
    1104:	52 96       	adiw	r26, 0x12	; 18
    1106:	9c 93       	st	X, r25
    1108:	52 97       	sbiw	r26, 0x12	; 18
    110a:	82 95       	swap	r24
    110c:	8f 70       	andi	r24, 0x0F	; 15
    110e:	51 96       	adiw	r26, 0x11	; 17
    1110:	8c 93       	st	X, r24
    1112:	51 97       	sbiw	r26, 0x11	; 17
    1114:	f9 01       	movw	r30, r18
    1116:	24 91       	lpm	r18, Z
    1118:	82 2f       	mov	r24, r18
    111a:	8f 70       	andi	r24, 0x0F	; 15
    111c:	54 96       	adiw	r26, 0x14	; 20
    111e:	8c 93       	st	X, r24
    1120:	54 97       	sbiw	r26, 0x14	; 20
    1122:	22 95       	swap	r18
    1124:	2f 70       	andi	r18, 0x0F	; 15
    1126:	53 96       	adiw	r26, 0x13	; 19
    1128:	2c 93       	st	X, r18
    112a:	53 97       	sbiw	r26, 0x13	; 19
    112c:	fe 01       	movw	r30, r28
    112e:	32 96       	adiw	r30, 0x02	; 2
    1130:	e4 91       	lpm	r30, Z
    1132:	e2 95       	swap	r30
    1134:	ef 70       	andi	r30, 0x0F	; 15
    1136:	50 96       	adiw	r26, 0x10	; 16
    1138:	ec 93       	st	X, r30
    113a:	ce 01       	movw	r24, r28
    113c:	0e c0       	rjmp	.+28     	; 0x115a <u8g_GetGlyph+0x198>
    113e:	fe 01       	movw	r30, r28
    1140:	32 96       	adiw	r30, 0x02	; 2
    1142:	e4 91       	lpm	r30, Z
    1144:	eb 21       	and	r30, r11
    1146:	9c 01       	movw	r18, r24
    1148:	2e 0f       	add	r18, r30
    114a:	31 1d       	adc	r19, r1
    114c:	c2 0f       	add	r28, r18
    114e:	d3 1f       	adc	r29, r19
    1150:	fd 14       	cp	r15, r13
    1152:	09 f4       	brne	.+2      	; 0x1156 <u8g_GetGlyph+0x194>
    1154:	89 cf       	rjmp	.-238    	; 0x1068 <u8g_GetGlyph+0xa6>
    1156:	f3 94       	inc	r15
    1158:	9d cf       	rjmp	.-198    	; 0x1094 <u8g_GetGlyph+0xd2>
    115a:	df 91       	pop	r29
    115c:	cf 91       	pop	r28
    115e:	1f 91       	pop	r17
    1160:	0f 91       	pop	r16
    1162:	ff 90       	pop	r15
    1164:	ef 90       	pop	r14
    1166:	df 90       	pop	r13
    1168:	cf 90       	pop	r12
    116a:	bf 90       	pop	r11
    116c:	08 95       	ret

0000116e <u8g_draw_glyph>:
    116e:	6f 92       	push	r6
    1170:	7f 92       	push	r7
    1172:	8f 92       	push	r8
    1174:	9f 92       	push	r9
    1176:	af 92       	push	r10
    1178:	bf 92       	push	r11
    117a:	cf 92       	push	r12
    117c:	df 92       	push	r13
    117e:	ef 92       	push	r14
    1180:	ff 92       	push	r15
    1182:	0f 93       	push	r16
    1184:	1f 93       	push	r17
    1186:	cf 93       	push	r28
    1188:	df 93       	push	r29
    118a:	ec 01       	movw	r28, r24
    118c:	c6 2e       	mov	r12, r22
    118e:	74 2e       	mov	r7, r20
    1190:	62 2f       	mov	r22, r18
    1192:	0e 94 e1 07 	call	0xfc2	; 0xfc2 <u8g_GetGlyph>
    1196:	7c 01       	movw	r14, r24
    1198:	89 2b       	or	r24, r25
    119a:	c9 f1       	breq	.+114    	; 0x120e <u8g_draw_glyph+0xa0>
    119c:	8c 81       	ldd	r24, Y+4	; 0x04
    119e:	9d 81       	ldd	r25, Y+5	; 0x05
    11a0:	0e 94 c7 07 	call	0xf8e	; 0xf8e <u8g_font_GetFontGlyphStructureSize>
    11a4:	b8 2e       	mov	r11, r24
    11a6:	1b 89       	ldd	r17, Y+19	; 0x13
    11a8:	0c 89       	ldd	r16, Y+20	; 0x14
    11aa:	89 89       	ldd	r24, Y+17	; 0x11
    11ac:	c8 0e       	add	r12, r24
    11ae:	8a 89       	ldd	r24, Y+18	; 0x12
    11b0:	78 1a       	sub	r7, r24
    11b2:	d7 2c       	mov	r13, r7
    11b4:	d0 1a       	sub	r13, r16
    11b6:	21 2f       	mov	r18, r17
    11b8:	4d 2d       	mov	r20, r13
    11ba:	6c 2d       	mov	r22, r12
    11bc:	ce 01       	movw	r24, r28
    11be:	0e 94 6c 05 	call	0xad8	; 0xad8 <u8g_IsBBXIntersection>
    11c2:	88 23       	and	r24, r24
    11c4:	11 f1       	breq	.+68     	; 0x120a <u8g_draw_glyph+0x9c>
    11c6:	eb 0c       	add	r14, r11
    11c8:	f1 1c       	adc	r15, r1
    11ca:	19 5f       	subi	r17, 0xF9	; 249
    11cc:	16 95       	lsr	r17
    11ce:	16 95       	lsr	r17
    11d0:	16 95       	lsr	r17
    11d2:	81 2e       	mov	r8, r17
    11d4:	91 2c       	mov	r9, r1
    11d6:	7d 14       	cp	r7, r13
    11d8:	c1 f0       	breq	.+48     	; 0x120a <u8g_draw_glyph+0x9c>
    11da:	6c 2c       	mov	r6, r12
    11dc:	57 01       	movw	r10, r14
    11de:	8a 2d       	mov	r24, r10
    11e0:	8e 19       	sub	r24, r14
    11e2:	81 17       	cp	r24, r17
    11e4:	70 f4       	brcc	.+28     	; 0x1202 <u8g_draw_glyph+0x94>
    11e6:	f5 01       	movw	r30, r10
    11e8:	04 91       	lpm	r16, Z
    11ea:	20 e0       	ldi	r18, 0x00	; 0
    11ec:	4d 2d       	mov	r20, r13
    11ee:	66 2d       	mov	r22, r6
    11f0:	ce 01       	movw	r24, r28
    11f2:	0e 94 c3 0a 	call	0x1586	; 0x1586 <u8g_Draw8Pixel>
    11f6:	ff ef       	ldi	r31, 0xFF	; 255
    11f8:	af 1a       	sub	r10, r31
    11fa:	bf 0a       	sbc	r11, r31
    11fc:	88 e0       	ldi	r24, 0x08	; 8
    11fe:	68 0e       	add	r6, r24
    1200:	ee cf       	rjmp	.-36     	; 0x11de <u8g_draw_glyph+0x70>
    1202:	e8 0c       	add	r14, r8
    1204:	f9 1c       	adc	r15, r9
    1206:	d3 94       	inc	r13
    1208:	e6 cf       	rjmp	.-52     	; 0x11d6 <u8g_draw_glyph+0x68>
    120a:	88 89       	ldd	r24, Y+16	; 0x10
    120c:	01 c0       	rjmp	.+2      	; 0x1210 <u8g_draw_glyph+0xa2>
    120e:	80 e0       	ldi	r24, 0x00	; 0
    1210:	df 91       	pop	r29
    1212:	cf 91       	pop	r28
    1214:	1f 91       	pop	r17
    1216:	0f 91       	pop	r16
    1218:	ff 90       	pop	r15
    121a:	ef 90       	pop	r14
    121c:	df 90       	pop	r13
    121e:	cf 90       	pop	r12
    1220:	bf 90       	pop	r11
    1222:	af 90       	pop	r10
    1224:	9f 90       	pop	r9
    1226:	8f 90       	pop	r8
    1228:	7f 90       	pop	r7
    122a:	6f 90       	pop	r6
    122c:	08 95       	ret

0000122e <u8g_DrawStr>:
    122e:	cf 92       	push	r12
    1230:	df 92       	push	r13
    1232:	ef 92       	push	r14
    1234:	ff 92       	push	r15
    1236:	0f 93       	push	r16
    1238:	1f 93       	push	r17
    123a:	cf 93       	push	r28
    123c:	df 93       	push	r29
    123e:	7c 01       	movw	r14, r24
    1240:	d6 2e       	mov	r13, r22
    1242:	04 2f       	mov	r16, r20
    1244:	c2 2e       	mov	r12, r18
    1246:	13 2f       	mov	r17, r19
    1248:	dc 01       	movw	r26, r24
    124a:	55 96       	adiw	r26, 0x15	; 21
    124c:	ed 91       	ld	r30, X+
    124e:	fc 91       	ld	r31, X
    1250:	56 97       	sbiw	r26, 0x16	; 22
    1252:	09 95       	icall
    1254:	08 0f       	add	r16, r24
    1256:	cc 2d       	mov	r28, r12
    1258:	d1 2f       	mov	r29, r17
    125a:	10 e0       	ldi	r17, 0x00	; 0
    125c:	29 91       	ld	r18, Y+
    125e:	22 23       	and	r18, r18
    1260:	41 f0       	breq	.+16     	; 0x1272 <u8g_DrawStr+0x44>
    1262:	40 2f       	mov	r20, r16
    1264:	6d 2d       	mov	r22, r13
    1266:	c7 01       	movw	r24, r14
    1268:	0e 94 b7 08 	call	0x116e	; 0x116e <u8g_draw_glyph>
    126c:	d8 0e       	add	r13, r24
    126e:	18 0f       	add	r17, r24
    1270:	f5 cf       	rjmp	.-22     	; 0x125c <u8g_DrawStr+0x2e>
    1272:	81 2f       	mov	r24, r17
    1274:	df 91       	pop	r29
    1276:	cf 91       	pop	r28
    1278:	1f 91       	pop	r17
    127a:	0f 91       	pop	r16
    127c:	ff 90       	pop	r15
    127e:	ef 90       	pop	r14
    1280:	df 90       	pop	r13
    1282:	cf 90       	pop	r12
    1284:	08 95       	ret

00001286 <u8g_UpdateRefHeight>:
    1286:	dc 01       	movw	r26, r24
    1288:	14 96       	adiw	r26, 0x04	; 4
    128a:	2d 91       	ld	r18, X+
    128c:	3c 91       	ld	r19, X
    128e:	15 97       	sbiw	r26, 0x05	; 5
    1290:	21 15       	cp	r18, r1
    1292:	31 05       	cpc	r19, r1
    1294:	09 f4       	brne	.+2      	; 0x1298 <u8g_UpdateRefHeight+0x12>
    1296:	3f c0       	rjmp	.+126    	; 0x1316 <u8g_UpdateRefHeight+0x90>
    1298:	57 96       	adiw	r26, 0x17	; 23
    129a:	8c 91       	ld	r24, X
    129c:	57 97       	sbiw	r26, 0x17	; 23
    129e:	f9 01       	movw	r30, r18
    12a0:	81 11       	cpse	r24, r1
    12a2:	08 c0       	rjmp	.+16     	; 0x12b4 <u8g_UpdateRefHeight+0x2e>
    12a4:	35 96       	adiw	r30, 0x05	; 5
    12a6:	e4 91       	lpm	r30, Z
    12a8:	58 96       	adiw	r26, 0x18	; 24
    12aa:	ec 93       	st	X, r30
    12ac:	58 97       	sbiw	r26, 0x18	; 24
    12ae:	f9 01       	movw	r30, r18
    12b0:	3c 96       	adiw	r30, 0x0c	; 12
    12b2:	11 c0       	rjmp	.+34     	; 0x12d6 <u8g_UpdateRefHeight+0x50>
    12b4:	81 30       	cpi	r24, 0x01	; 1
    12b6:	41 f4       	brne	.+16     	; 0x12c8 <u8g_UpdateRefHeight+0x42>
    12b8:	3f 96       	adiw	r30, 0x0f	; 15
    12ba:	e4 91       	lpm	r30, Z
    12bc:	58 96       	adiw	r26, 0x18	; 24
    12be:	ec 93       	st	X, r30
    12c0:	58 97       	sbiw	r26, 0x18	; 24
    12c2:	f9 01       	movw	r30, r18
    12c4:	70 96       	adiw	r30, 0x10	; 16
    12c6:	07 c0       	rjmp	.+14     	; 0x12d6 <u8g_UpdateRefHeight+0x50>
    12c8:	3d 96       	adiw	r30, 0x0d	; 13
    12ca:	e4 91       	lpm	r30, Z
    12cc:	58 96       	adiw	r26, 0x18	; 24
    12ce:	ec 93       	st	X, r30
    12d0:	58 97       	sbiw	r26, 0x18	; 24
    12d2:	f9 01       	movw	r30, r18
    12d4:	3e 96       	adiw	r30, 0x0e	; 14
    12d6:	e4 91       	lpm	r30, Z
    12d8:	59 96       	adiw	r26, 0x19	; 25
    12da:	ec 93       	st	X, r30
    12dc:	59 97       	sbiw	r26, 0x19	; 25
    12de:	58 96       	adiw	r26, 0x18	; 24
    12e0:	8c 91       	ld	r24, X
    12e2:	58 97       	sbiw	r26, 0x18	; 24
    12e4:	08 2e       	mov	r0, r24
    12e6:	00 0c       	add	r0, r0
    12e8:	99 0b       	sbc	r25, r25
    12ea:	59 96       	adiw	r26, 0x19	; 25
    12ec:	2c 91       	ld	r18, X
    12ee:	59 97       	sbiw	r26, 0x19	; 25
    12f0:	82 1b       	sub	r24, r18
    12f2:	91 09       	sbc	r25, r1
    12f4:	27 fd       	sbrc	r18, 7
    12f6:	93 95       	inc	r25
    12f8:	5a 96       	adiw	r26, 0x1a	; 26
    12fa:	2c 91       	ld	r18, X
    12fc:	5a 97       	sbiw	r26, 0x1a	; 26
    12fe:	20 34       	cpi	r18, 0x40	; 64
    1300:	41 f0       	breq	.+16     	; 0x1312 <u8g_UpdateRefHeight+0x8c>
    1302:	82 9f       	mul	r24, r18
    1304:	c0 01       	movw	r24, r0
    1306:	11 24       	eor	r1, r1
    1308:	26 e0       	ldi	r18, 0x06	; 6
    130a:	96 95       	lsr	r25
    130c:	87 95       	ror	r24
    130e:	2a 95       	dec	r18
    1310:	e1 f7       	brne	.-8      	; 0x130a <u8g_UpdateRefHeight+0x84>
    1312:	5b 96       	adiw	r26, 0x1b	; 27
    1314:	8c 93       	st	X, r24
    1316:	08 95       	ret

00001318 <u8g_SetFontPosBaseline>:
    1318:	21 ed       	ldi	r18, 0xD1	; 209
    131a:	37 e0       	ldi	r19, 0x07	; 7
    131c:	fc 01       	movw	r30, r24
    131e:	36 8b       	std	Z+22, r19	; 0x16
    1320:	25 8b       	std	Z+21, r18	; 0x15
    1322:	08 95       	ret

00001324 <u8g_SetFont>:
    1324:	cf 93       	push	r28
    1326:	df 93       	push	r29
    1328:	fc 01       	movw	r30, r24
    132a:	24 81       	ldd	r18, Z+4	; 0x04
    132c:	35 81       	ldd	r19, Z+5	; 0x05
    132e:	26 17       	cp	r18, r22
    1330:	37 07       	cpc	r19, r23
    1332:	49 f0       	breq	.+18     	; 0x1346 <u8g_SetFont+0x22>
    1334:	ec 01       	movw	r28, r24
    1336:	75 83       	std	Z+5, r23	; 0x05
    1338:	64 83       	std	Z+4, r22	; 0x04
    133a:	0e 94 43 09 	call	0x1286	; 0x1286 <u8g_UpdateRefHeight>
    133e:	81 ed       	ldi	r24, 0xD1	; 209
    1340:	97 e0       	ldi	r25, 0x07	; 7
    1342:	9e 8b       	std	Y+22, r25	; 0x16
    1344:	8d 8b       	std	Y+21, r24	; 0x15
    1346:	df 91       	pop	r29
    1348:	cf 91       	pop	r28
    134a:	08 95       	ret

0000134c <u8g_init_data>:
    134c:	1f 93       	push	r17
    134e:	cf 93       	push	r28
    1350:	df 93       	push	r29
    1352:	ec 01       	movw	r28, r24
    1354:	1d 82       	std	Y+5, r1	; 0x05
    1356:	1c 82       	std	Y+4, r1	; 0x04
    1358:	1f 82       	std	Y+7, r1	; 0x07
    135a:	1e 82       	std	Y+6, r1	; 0x06
    135c:	19 86       	std	Y+9, r1	; 0x09
    135e:	81 e0       	ldi	r24, 0x01	; 1
    1360:	88 87       	std	Y+8, r24	; 0x08
    1362:	82 e2       	ldi	r24, 0x22	; 34
    1364:	8a 87       	std	Y+10, r24	; 0x0a
    1366:	1f 86       	std	Y+15, r1	; 0x0f
    1368:	1e 86       	std	Y+14, r1	; 0x0e
    136a:	fe 01       	movw	r30, r28
    136c:	b3 96       	adiw	r30, 0x23	; 35
    136e:	ce 01       	movw	r24, r28
    1370:	c1 96       	adiw	r24, 0x31	; 49
    1372:	2f ef       	ldi	r18, 0xFF	; 255
    1374:	21 93       	st	Z+, r18
    1376:	e8 17       	cp	r30, r24
    1378:	f9 07       	cpc	r31, r25
    137a:	e1 f7       	brne	.-8      	; 0x1374 <u8g_init_data+0x28>
    137c:	11 e0       	ldi	r17, 0x01	; 1
    137e:	18 a3       	std	Y+32, r17	; 0x20
    1380:	ce 01       	movw	r24, r28
    1382:	0e 94 8c 09 	call	0x1318	; 0x1318 <u8g_SetFontPosBaseline>
    1386:	1f 8b       	std	Y+23, r17	; 0x17
    1388:	18 8e       	std	Y+24, r1	; 0x18
    138a:	19 8e       	std	Y+25, r1	; 0x19
    138c:	80 e4       	ldi	r24, 0x40	; 64
    138e:	8a 8f       	std	Y+26, r24	; 0x1a
    1390:	1b 8e       	std	Y+27, r1	; 0x1b
    1392:	8b ee       	ldi	r24, 0xEB	; 235
    1394:	9b e0       	ldi	r25, 0x0B	; 11
    1396:	9a ab       	std	Y+50, r25	; 0x32
    1398:	89 ab       	std	Y+49, r24	; 0x31
    139a:	df 91       	pop	r29
    139c:	cf 91       	pop	r28
    139e:	1f 91       	pop	r17
    13a0:	08 95       	ret

000013a2 <u8g_call_dev_fn>:
    13a2:	db 01       	movw	r26, r22
    13a4:	ed 91       	ld	r30, X+
    13a6:	fc 91       	ld	r31, X
    13a8:	09 94       	ijmp

000013aa <u8g_InitLL>:
    13aa:	0f 93       	push	r16
    13ac:	1f 93       	push	r17
    13ae:	cf 93       	push	r28
    13b0:	df 93       	push	r29
    13b2:	ec 01       	movw	r28, r24
    13b4:	8b 01       	movw	r16, r22
    13b6:	e9 a9       	ldd	r30, Y+49	; 0x31
    13b8:	fa a9       	ldd	r31, Y+50	; 0x32
    13ba:	82 e0       	ldi	r24, 0x02	; 2
    13bc:	09 95       	icall
    13be:	20 e0       	ldi	r18, 0x00	; 0
    13c0:	30 e0       	ldi	r19, 0x00	; 0
    13c2:	4a e0       	ldi	r20, 0x0A	; 10
    13c4:	b8 01       	movw	r22, r16
    13c6:	ce 01       	movw	r24, r28
    13c8:	0e 94 d1 09 	call	0x13a2	; 0x13a2 <u8g_call_dev_fn>
    13cc:	18 2f       	mov	r17, r24
    13ce:	e9 a9       	ldd	r30, Y+49	; 0x31
    13d0:	fa a9       	ldd	r31, Y+50	; 0x32
    13d2:	83 e0       	ldi	r24, 0x03	; 3
    13d4:	09 95       	icall
    13d6:	e9 a9       	ldd	r30, Y+49	; 0x31
    13d8:	fa a9       	ldd	r31, Y+50	; 0x32
    13da:	80 e0       	ldi	r24, 0x00	; 0
    13dc:	09 95       	icall
    13de:	81 2f       	mov	r24, r17
    13e0:	df 91       	pop	r29
    13e2:	cf 91       	pop	r28
    13e4:	1f 91       	pop	r17
    13e6:	0f 91       	pop	r16
    13e8:	08 95       	ret

000013ea <u8g_FirstPageLL>:
    13ea:	0f 93       	push	r16
    13ec:	1f 93       	push	r17
    13ee:	cf 93       	push	r28
    13f0:	df 93       	push	r29
    13f2:	ec 01       	movw	r28, r24
    13f4:	8b 01       	movw	r16, r22
    13f6:	e9 a9       	ldd	r30, Y+49	; 0x31
    13f8:	fa a9       	ldd	r31, Y+50	; 0x32
    13fa:	82 e0       	ldi	r24, 0x02	; 2
    13fc:	09 95       	icall
    13fe:	e9 a9       	ldd	r30, Y+49	; 0x31
    1400:	fa a9       	ldd	r31, Y+50	; 0x32
    1402:	81 e0       	ldi	r24, 0x01	; 1
    1404:	09 95       	icall
    1406:	20 e0       	ldi	r18, 0x00	; 0
    1408:	30 e0       	ldi	r19, 0x00	; 0
    140a:	44 e1       	ldi	r20, 0x14	; 20
    140c:	b8 01       	movw	r22, r16
    140e:	ce 01       	movw	r24, r28
    1410:	0e 94 d1 09 	call	0x13a2	; 0x13a2 <u8g_call_dev_fn>
    1414:	9e 01       	movw	r18, r28
    1416:	2d 5c       	subi	r18, 0xCD	; 205
    1418:	3f 4f       	sbci	r19, 0xFF	; 255
    141a:	47 e1       	ldi	r20, 0x17	; 23
    141c:	b8 01       	movw	r22, r16
    141e:	ce 01       	movw	r24, r28
    1420:	0e 94 d1 09 	call	0x13a2	; 0x13a2 <u8g_call_dev_fn>
    1424:	e9 a9       	ldd	r30, Y+49	; 0x31
    1426:	fa a9       	ldd	r31, Y+50	; 0x32
    1428:	80 e0       	ldi	r24, 0x00	; 0
    142a:	df 91       	pop	r29
    142c:	cf 91       	pop	r28
    142e:	1f 91       	pop	r17
    1430:	0f 91       	pop	r16
    1432:	09 94       	ijmp

00001434 <u8g_NextPageLL>:
    1434:	ef 92       	push	r14
    1436:	ff 92       	push	r15
    1438:	1f 93       	push	r17
    143a:	cf 93       	push	r28
    143c:	df 93       	push	r29
    143e:	ec 01       	movw	r28, r24
    1440:	7b 01       	movw	r14, r22
    1442:	e9 a9       	ldd	r30, Y+49	; 0x31
    1444:	fa a9       	ldd	r31, Y+50	; 0x32
    1446:	82 e0       	ldi	r24, 0x02	; 2
    1448:	09 95       	icall
    144a:	e9 a9       	ldd	r30, Y+49	; 0x31
    144c:	fa a9       	ldd	r31, Y+50	; 0x32
    144e:	81 e0       	ldi	r24, 0x01	; 1
    1450:	09 95       	icall
    1452:	20 e0       	ldi	r18, 0x00	; 0
    1454:	30 e0       	ldi	r19, 0x00	; 0
    1456:	45 e1       	ldi	r20, 0x15	; 21
    1458:	b7 01       	movw	r22, r14
    145a:	ce 01       	movw	r24, r28
    145c:	0e 94 d1 09 	call	0x13a2	; 0x13a2 <u8g_call_dev_fn>
    1460:	18 2f       	mov	r17, r24
    1462:	88 23       	and	r24, r24
    1464:	41 f0       	breq	.+16     	; 0x1476 <u8g_NextPageLL+0x42>
    1466:	9e 01       	movw	r18, r28
    1468:	2d 5c       	subi	r18, 0xCD	; 205
    146a:	3f 4f       	sbci	r19, 0xFF	; 255
    146c:	47 e1       	ldi	r20, 0x17	; 23
    146e:	b7 01       	movw	r22, r14
    1470:	ce 01       	movw	r24, r28
    1472:	0e 94 d1 09 	call	0x13a2	; 0x13a2 <u8g_call_dev_fn>
    1476:	e9 a9       	ldd	r30, Y+49	; 0x31
    1478:	fa a9       	ldd	r31, Y+50	; 0x32
    147a:	80 e0       	ldi	r24, 0x00	; 0
    147c:	09 95       	icall
    147e:	81 2f       	mov	r24, r17
    1480:	df 91       	pop	r29
    1482:	cf 91       	pop	r28
    1484:	1f 91       	pop	r17
    1486:	ff 90       	pop	r15
    1488:	ef 90       	pop	r14
    148a:	08 95       	ret

0000148c <u8g_GetWidthLL>:
    148c:	cf 93       	push	r28
    148e:	df 93       	push	r29
    1490:	1f 92       	push	r1
    1492:	cd b7       	in	r28, 0x3d	; 61
    1494:	de b7       	in	r29, 0x3e	; 62
    1496:	9e 01       	movw	r18, r28
    1498:	2f 5f       	subi	r18, 0xFF	; 255
    149a:	3f 4f       	sbci	r19, 0xFF	; 255
    149c:	46 e4       	ldi	r20, 0x46	; 70
    149e:	0e 94 d1 09 	call	0x13a2	; 0x13a2 <u8g_call_dev_fn>
    14a2:	89 81       	ldd	r24, Y+1	; 0x01
    14a4:	0f 90       	pop	r0
    14a6:	df 91       	pop	r29
    14a8:	cf 91       	pop	r28
    14aa:	08 95       	ret

000014ac <u8g_GetHeightLL>:
    14ac:	cf 93       	push	r28
    14ae:	df 93       	push	r29
    14b0:	1f 92       	push	r1
    14b2:	cd b7       	in	r28, 0x3d	; 61
    14b4:	de b7       	in	r29, 0x3e	; 62
    14b6:	9e 01       	movw	r18, r28
    14b8:	2f 5f       	subi	r18, 0xFF	; 255
    14ba:	3f 4f       	sbci	r19, 0xFF	; 255
    14bc:	47 e4       	ldi	r20, 0x47	; 71
    14be:	0e 94 d1 09 	call	0x13a2	; 0x13a2 <u8g_call_dev_fn>
    14c2:	89 81       	ldd	r24, Y+1	; 0x01
    14c4:	0f 90       	pop	r0
    14c6:	df 91       	pop	r29
    14c8:	cf 91       	pop	r28
    14ca:	08 95       	ret

000014cc <u8g_GetModeLL>:
    14cc:	20 e0       	ldi	r18, 0x00	; 0
    14ce:	30 e0       	ldi	r19, 0x00	; 0
    14d0:	48 e4       	ldi	r20, 0x48	; 72
    14d2:	0c 94 d1 09 	jmp	0x13a2	; 0x13a2 <u8g_call_dev_fn>

000014d6 <u8g_UpdateDimension>:
    14d6:	cf 93       	push	r28
    14d8:	df 93       	push	r29
    14da:	ec 01       	movw	r28, r24
    14dc:	6a 81       	ldd	r22, Y+2	; 0x02
    14de:	7b 81       	ldd	r23, Y+3	; 0x03
    14e0:	0e 94 46 0a 	call	0x148c	; 0x148c <u8g_GetWidthLL>
    14e4:	88 83       	st	Y, r24
    14e6:	6a 81       	ldd	r22, Y+2	; 0x02
    14e8:	7b 81       	ldd	r23, Y+3	; 0x03
    14ea:	ce 01       	movw	r24, r28
    14ec:	0e 94 56 0a 	call	0x14ac	; 0x14ac <u8g_GetHeightLL>
    14f0:	89 83       	std	Y+1, r24	; 0x01
    14f2:	6a 81       	ldd	r22, Y+2	; 0x02
    14f4:	7b 81       	ldd	r23, Y+3	; 0x03
    14f6:	ce 01       	movw	r24, r28
    14f8:	0e 94 66 0a 	call	0x14cc	; 0x14cc <u8g_GetModeLL>
    14fc:	8b 87       	std	Y+11, r24	; 0x0b
    14fe:	9e 01       	movw	r18, r28
    1500:	2d 5c       	subi	r18, 0xCD	; 205
    1502:	3f 4f       	sbci	r19, 0xFF	; 255
    1504:	6a 81       	ldd	r22, Y+2	; 0x02
    1506:	7b 81       	ldd	r23, Y+3	; 0x03
    1508:	47 e1       	ldi	r20, 0x17	; 23
    150a:	ce 01       	movw	r24, r28
    150c:	df 91       	pop	r29
    150e:	cf 91       	pop	r28
    1510:	0c 94 d1 09 	jmp	0x13a2	; 0x13a2 <u8g_call_dev_fn>

00001514 <u8g_Begin>:
    1514:	cf 93       	push	r28
    1516:	df 93       	push	r29
    1518:	ec 01       	movw	r28, r24
    151a:	6a 81       	ldd	r22, Y+2	; 0x02
    151c:	7b 81       	ldd	r23, Y+3	; 0x03
    151e:	0e 94 d5 09 	call	0x13aa	; 0x13aa <u8g_InitLL>
    1522:	88 23       	and	r24, r24
    1524:	21 f0       	breq	.+8      	; 0x152e <u8g_Begin+0x1a>
    1526:	ce 01       	movw	r24, r28
    1528:	0e 94 6b 0a 	call	0x14d6	; 0x14d6 <u8g_UpdateDimension>
    152c:	81 e0       	ldi	r24, 0x01	; 1
    152e:	df 91       	pop	r29
    1530:	cf 91       	pop	r28
    1532:	08 95       	ret

00001534 <u8g_InitI2C>:
    1534:	ef 92       	push	r14
    1536:	ff 92       	push	r15
    1538:	1f 93       	push	r17
    153a:	cf 93       	push	r28
    153c:	df 93       	push	r29
    153e:	ec 01       	movw	r28, r24
    1540:	7b 01       	movw	r14, r22
    1542:	14 2f       	mov	r17, r20
    1544:	0e 94 a6 09 	call	0x134c	; 0x134c <u8g_init_data>
    1548:	fb 82       	std	Y+3, r15	; 0x03
    154a:	ea 82       	std	Y+2, r14	; 0x02
    154c:	1e a7       	std	Y+46, r17	; 0x2e
    154e:	ce 01       	movw	r24, r28
    1550:	df 91       	pop	r29
    1552:	cf 91       	pop	r28
    1554:	1f 91       	pop	r17
    1556:	ff 90       	pop	r15
    1558:	ef 90       	pop	r14
    155a:	0c 94 8a 0a 	jmp	0x1514	; 0x1514 <u8g_Begin>

0000155e <u8g_FirstPage>:
    155e:	fc 01       	movw	r30, r24
    1560:	62 81       	ldd	r22, Z+2	; 0x02
    1562:	73 81       	ldd	r23, Z+3	; 0x03
    1564:	0c 94 f5 09 	jmp	0x13ea	; 0x13ea <u8g_FirstPageLL>

00001568 <u8g_NextPage>:
    1568:	cf 93       	push	r28
    156a:	df 93       	push	r29
    156c:	ec 01       	movw	r28, r24
    156e:	ee 85       	ldd	r30, Y+14	; 0x0e
    1570:	ff 85       	ldd	r31, Y+15	; 0x0f
    1572:	30 97       	sbiw	r30, 0x00	; 0
    1574:	09 f0       	breq	.+2      	; 0x1578 <u8g_NextPage+0x10>
    1576:	09 95       	icall
    1578:	6a 81       	ldd	r22, Y+2	; 0x02
    157a:	7b 81       	ldd	r23, Y+3	; 0x03
    157c:	ce 01       	movw	r24, r28
    157e:	df 91       	pop	r29
    1580:	cf 91       	pop	r28
    1582:	0c 94 1a 0a 	jmp	0x1434	; 0x1434 <u8g_NextPageLL>

00001586 <u8g_Draw8Pixel>:
    1586:	0f 93       	push	r16
    1588:	fc 01       	movw	r30, r24
    158a:	82 81       	ldd	r24, Z+2	; 0x02
    158c:	93 81       	ldd	r25, Z+3	; 0x03
    158e:	64 8f       	std	Z+28, r22	; 0x1c
    1590:	45 8f       	std	Z+29, r20	; 0x1d
    1592:	27 8f       	std	Z+31, r18	; 0x1f
    1594:	06 8f       	std	Z+30, r16	; 0x1e
    1596:	9f 01       	movw	r18, r30
    1598:	24 5e       	subi	r18, 0xE4	; 228
    159a:	3f 4f       	sbci	r19, 0xFF	; 255
    159c:	4b e3       	ldi	r20, 0x3B	; 59
    159e:	bc 01       	movw	r22, r24
    15a0:	cf 01       	movw	r24, r30
    15a2:	0f 91       	pop	r16
    15a4:	0c 94 d1 09 	jmp	0x13a2	; 0x13a2 <u8g_call_dev_fn>

000015a8 <u8g_page_First>:
    15a8:	fc 01       	movw	r30, r24
    15aa:	12 82       	std	Z+2, r1	; 0x02
    15ac:	80 81       	ld	r24, Z
    15ae:	81 50       	subi	r24, 0x01	; 1
    15b0:	83 83       	std	Z+3, r24	; 0x03
    15b2:	14 82       	std	Z+4, r1	; 0x04
    15b4:	08 95       	ret

000015b6 <u8g_page_Next>:
    15b6:	fc 01       	movw	r30, r24
    15b8:	30 81       	ld	r19, Z
    15ba:	92 81       	ldd	r25, Z+2	; 0x02
    15bc:	93 0f       	add	r25, r19
    15be:	92 83       	std	Z+2, r25	; 0x02
    15c0:	21 81       	ldd	r18, Z+1	; 0x01
    15c2:	92 17       	cp	r25, r18
    15c4:	60 f4       	brcc	.+24     	; 0x15de <u8g_page_Next+0x28>
    15c6:	94 81       	ldd	r25, Z+4	; 0x04
    15c8:	9f 5f       	subi	r25, 0xFF	; 255
    15ca:	94 83       	std	Z+4, r25	; 0x04
    15cc:	83 81       	ldd	r24, Z+3	; 0x03
    15ce:	83 0f       	add	r24, r19
    15d0:	82 17       	cp	r24, r18
    15d2:	10 f0       	brcs	.+4      	; 0x15d8 <u8g_page_Next+0x22>
    15d4:	8f ef       	ldi	r24, 0xFF	; 255
    15d6:	82 0f       	add	r24, r18
    15d8:	83 83       	std	Z+3, r24	; 0x03
    15da:	81 e0       	ldi	r24, 0x01	; 1
    15dc:	08 95       	ret
    15de:	80 e0       	ldi	r24, 0x00	; 0
    15e0:	08 95       	ret

000015e2 <u8g_pb_Clear>:
    15e2:	dc 01       	movw	r26, r24
    15e4:	16 96       	adiw	r26, 0x06	; 6
    15e6:	ed 91       	ld	r30, X+
    15e8:	fc 91       	ld	r31, X
    15ea:	17 97       	sbiw	r26, 0x07	; 7
    15ec:	15 96       	adiw	r26, 0x05	; 5
    15ee:	8c 91       	ld	r24, X
    15f0:	9f 01       	movw	r18, r30
    15f2:	28 0f       	add	r18, r24
    15f4:	31 1d       	adc	r19, r1
    15f6:	c9 01       	movw	r24, r18
    15f8:	11 92       	st	Z+, r1
    15fa:	e8 17       	cp	r30, r24
    15fc:	f9 07       	cpc	r31, r25
    15fe:	e1 f7       	brne	.-8      	; 0x15f8 <u8g_pb_Clear+0x16>
    1600:	08 95       	ret

00001602 <u8g_pb_IsYIntersection>:
    1602:	31 e0       	ldi	r19, 0x01	; 1
    1604:	fc 01       	movw	r30, r24
    1606:	23 81       	ldd	r18, Z+3	; 0x03
    1608:	26 17       	cp	r18, r22
    160a:	08 f4       	brcc	.+2      	; 0x160e <u8g_pb_IsYIntersection+0xc>
    160c:	30 e0       	ldi	r19, 0x00	; 0
    160e:	21 e0       	ldi	r18, 0x01	; 1
    1610:	fc 01       	movw	r30, r24
    1612:	82 81       	ldd	r24, Z+2	; 0x02
    1614:	48 17       	cp	r20, r24
    1616:	08 f4       	brcc	.+2      	; 0x161a <u8g_pb_IsYIntersection+0x18>
    1618:	20 e0       	ldi	r18, 0x00	; 0
    161a:	91 e0       	ldi	r25, 0x01	; 1
    161c:	46 17       	cp	r20, r22
    161e:	08 f0       	brcs	.+2      	; 0x1622 <u8g_pb_IsYIntersection+0x20>
    1620:	90 e0       	ldi	r25, 0x00	; 0
    1622:	89 2f       	mov	r24, r25
    1624:	83 2b       	or	r24, r19
    1626:	28 23       	and	r18, r24
    1628:	83 2f       	mov	r24, r19
    162a:	89 23       	and	r24, r25
    162c:	82 2b       	or	r24, r18
    162e:	08 95       	ret

00001630 <u8g_pb_GetPageBox>:
    1630:	dc 01       	movw	r26, r24
    1632:	fb 01       	movw	r30, r22
    1634:	10 82       	st	Z, r1
    1636:	12 96       	adiw	r26, 0x02	; 2
    1638:	8c 91       	ld	r24, X
    163a:	12 97       	sbiw	r26, 0x02	; 2
    163c:	81 83       	std	Z+1, r24	; 0x01
    163e:	15 96       	adiw	r26, 0x05	; 5
    1640:	8c 91       	ld	r24, X
    1642:	15 97       	sbiw	r26, 0x05	; 5
    1644:	81 50       	subi	r24, 0x01	; 1
    1646:	82 83       	std	Z+2, r24	; 0x02
    1648:	13 96       	adiw	r26, 0x03	; 3
    164a:	8c 91       	ld	r24, X
    164c:	83 83       	std	Z+3, r24	; 0x03
    164e:	08 95       	ret

00001650 <u8g_pb_Is8PixelVisible>:
    1650:	fb 01       	movw	r30, r22
    1652:	41 81       	ldd	r20, Z+1	; 0x01
    1654:	23 81       	ldd	r18, Z+3	; 0x03
    1656:	21 30       	cpi	r18, 0x01	; 1
    1658:	29 f0       	breq	.+10     	; 0x1664 <u8g_pb_Is8PixelVisible+0x14>
    165a:	23 30       	cpi	r18, 0x03	; 3
    165c:	31 f4       	brne	.+12     	; 0x166a <u8g_pb_Is8PixelVisible+0x1a>
    165e:	68 ef       	ldi	r22, 0xF8	; 248
    1660:	64 0f       	add	r22, r20
    1662:	04 c0       	rjmp	.+8      	; 0x166c <u8g_pb_Is8PixelVisible+0x1c>
    1664:	64 2f       	mov	r22, r20
    1666:	48 5f       	subi	r20, 0xF8	; 248
    1668:	01 c0       	rjmp	.+2      	; 0x166c <u8g_pb_Is8PixelVisible+0x1c>
    166a:	64 2f       	mov	r22, r20
    166c:	0c 94 01 0b 	jmp	0x1602	; 0x1602 <u8g_pb_IsYIntersection>

00001670 <u8g_pb_WriteBuffer>:
    1670:	fc 01       	movw	r30, r24
    1672:	cb 01       	movw	r24, r22
    1674:	ba 01       	movw	r22, r20
    1676:	26 81       	ldd	r18, Z+6	; 0x06
    1678:	37 81       	ldd	r19, Z+7	; 0x07
    167a:	45 81       	ldd	r20, Z+5	; 0x05
    167c:	0c 94 c6 05 	jmp	0xb8c	; 0xb8c <u8g_WriteSequence>

00001680 <u8g_pb8v1_set_pixel>:
    1680:	dc 01       	movw	r26, r24
    1682:	16 96       	adiw	r26, 0x06	; 6
    1684:	ed 91       	ld	r30, X+
    1686:	fc 91       	ld	r31, X
    1688:	17 97       	sbiw	r26, 0x07	; 7
    168a:	12 96       	adiw	r26, 0x02	; 2
    168c:	8c 91       	ld	r24, X
    168e:	48 1b       	sub	r20, r24
    1690:	47 70       	andi	r20, 0x07	; 7
    1692:	81 e0       	ldi	r24, 0x01	; 1
    1694:	90 e0       	ldi	r25, 0x00	; 0
    1696:	01 c0       	rjmp	.+2      	; 0x169a <u8g_pb8v1_set_pixel+0x1a>
    1698:	88 0f       	add	r24, r24
    169a:	4a 95       	dec	r20
    169c:	ea f7       	brpl	.-6      	; 0x1698 <u8g_pb8v1_set_pixel+0x18>
    169e:	e6 0f       	add	r30, r22
    16a0:	f1 1d       	adc	r31, r1
    16a2:	30 81       	ld	r19, Z
    16a4:	22 23       	and	r18, r18
    16a6:	11 f0       	breq	.+4      	; 0x16ac <u8g_pb8v1_set_pixel+0x2c>
    16a8:	83 2b       	or	r24, r19
    16aa:	02 c0       	rjmp	.+4      	; 0x16b0 <u8g_pb8v1_set_pixel+0x30>
    16ac:	80 95       	com	r24
    16ae:	83 23       	and	r24, r19
    16b0:	80 83       	st	Z, r24
    16b2:	08 95       	ret

000016b4 <u8g_pb8v1_SetPixel>:
    16b4:	fb 01       	movw	r30, r22
    16b6:	41 81       	ldd	r20, Z+1	; 0x01
    16b8:	dc 01       	movw	r26, r24
    16ba:	12 96       	adiw	r26, 0x02	; 2
    16bc:	2c 91       	ld	r18, X
    16be:	12 97       	sbiw	r26, 0x02	; 2
    16c0:	42 17       	cp	r20, r18
    16c2:	68 f0       	brcs	.+26     	; 0x16de <u8g_pb8v1_SetPixel+0x2a>
    16c4:	13 96       	adiw	r26, 0x03	; 3
    16c6:	2c 91       	ld	r18, X
    16c8:	13 97       	sbiw	r26, 0x03	; 3
    16ca:	24 17       	cp	r18, r20
    16cc:	40 f0       	brcs	.+16     	; 0x16de <u8g_pb8v1_SetPixel+0x2a>
    16ce:	60 81       	ld	r22, Z
    16d0:	15 96       	adiw	r26, 0x05	; 5
    16d2:	2c 91       	ld	r18, X
    16d4:	62 17       	cp	r22, r18
    16d6:	18 f4       	brcc	.+6      	; 0x16de <u8g_pb8v1_SetPixel+0x2a>
    16d8:	24 81       	ldd	r18, Z+4	; 0x04
    16da:	0c 94 40 0b 	jmp	0x1680	; 0x1680 <u8g_pb8v1_set_pixel>
    16de:	08 95       	ret

000016e0 <u8g_pb8v1_Set8PixelOpt2>:
    16e0:	cf 92       	push	r12
    16e2:	df 92       	push	r13
    16e4:	ff 92       	push	r15
    16e6:	0f 93       	push	r16
    16e8:	1f 93       	push	r17
    16ea:	cf 93       	push	r28
    16ec:	df 93       	push	r29
    16ee:	6c 01       	movw	r12, r24
    16f0:	eb 01       	movw	r28, r22
    16f2:	fa 80       	ldd	r15, Y+2	; 0x02
    16f4:	8b 81       	ldd	r24, Y+3	; 0x03
    16f6:	81 30       	cpi	r24, 0x01	; 1
    16f8:	51 f0       	breq	.+20     	; 0x170e <u8g_pb8v1_Set8PixelOpt2+0x2e>
    16fa:	30 f0       	brcs	.+12     	; 0x1708 <u8g_pb8v1_Set8PixelOpt2+0x28>
    16fc:	82 30       	cpi	r24, 0x02	; 2
    16fe:	49 f0       	breq	.+18     	; 0x1712 <u8g_pb8v1_Set8PixelOpt2+0x32>
    1700:	83 30       	cpi	r24, 0x03	; 3
    1702:	51 f4       	brne	.+20     	; 0x1718 <u8g_pb8v1_Set8PixelOpt2+0x38>
    1704:	1f ef       	ldi	r17, 0xFF	; 255
    1706:	09 c0       	rjmp	.+18     	; 0x171a <u8g_pb8v1_Set8PixelOpt2+0x3a>
    1708:	10 e0       	ldi	r17, 0x00	; 0
    170a:	01 e0       	ldi	r16, 0x01	; 1
    170c:	07 c0       	rjmp	.+14     	; 0x171c <u8g_pb8v1_Set8PixelOpt2+0x3c>
    170e:	11 e0       	ldi	r17, 0x01	; 1
    1710:	04 c0       	rjmp	.+8      	; 0x171a <u8g_pb8v1_Set8PixelOpt2+0x3a>
    1712:	10 e0       	ldi	r17, 0x00	; 0
    1714:	0f ef       	ldi	r16, 0xFF	; 255
    1716:	02 c0       	rjmp	.+4      	; 0x171c <u8g_pb8v1_Set8PixelOpt2+0x3c>
    1718:	10 e0       	ldi	r17, 0x00	; 0
    171a:	00 e0       	ldi	r16, 0x00	; 0
    171c:	f7 fe       	sbrs	r15, 7
    171e:	04 c0       	rjmp	.+8      	; 0x1728 <u8g_pb8v1_Set8PixelOpt2+0x48>
    1720:	be 01       	movw	r22, r28
    1722:	c6 01       	movw	r24, r12
    1724:	0e 94 5a 0b 	call	0x16b4	; 0x16b4 <u8g_pb8v1_SetPixel>
    1728:	88 81       	ld	r24, Y
    172a:	80 0f       	add	r24, r16
    172c:	88 83       	st	Y, r24
    172e:	89 81       	ldd	r24, Y+1	; 0x01
    1730:	81 0f       	add	r24, r17
    1732:	89 83       	std	Y+1, r24	; 0x01
    1734:	ff 0c       	add	r15, r15
    1736:	91 f7       	brne	.-28     	; 0x171c <u8g_pb8v1_Set8PixelOpt2+0x3c>
    1738:	df 91       	pop	r29
    173a:	cf 91       	pop	r28
    173c:	1f 91       	pop	r17
    173e:	0f 91       	pop	r16
    1740:	ff 90       	pop	r15
    1742:	df 90       	pop	r13
    1744:	cf 90       	pop	r12
    1746:	08 95       	ret

00001748 <u8g_dev_pb8v1_base_fn>:
    1748:	0f 93       	push	r16
    174a:	1f 93       	push	r17
    174c:	cf 93       	push	r28
    174e:	df 93       	push	r29
    1750:	89 01       	movw	r16, r18
    1752:	fb 01       	movw	r30, r22
    1754:	c2 81       	ldd	r28, Z+2	; 0x02
    1756:	d3 81       	ldd	r29, Z+3	; 0x03
    1758:	42 33       	cpi	r20, 0x32	; 50
    175a:	f9 f0       	breq	.+62     	; 0x179a <u8g_dev_pb8v1_base_fn+0x52>
    175c:	68 f4       	brcc	.+26     	; 0x1778 <u8g_dev_pb8v1_base_fn+0x30>
    175e:	45 31       	cpi	r20, 0x15	; 21
    1760:	09 f1       	breq	.+66     	; 0x17a4 <u8g_dev_pb8v1_base_fn+0x5c>
    1762:	47 31       	cpi	r20, 0x17	; 23
    1764:	41 f1       	breq	.+80     	; 0x17b6 <u8g_dev_pb8v1_base_fn+0x6e>
    1766:	44 31       	cpi	r20, 0x14	; 20
    1768:	81 f5       	brne	.+96     	; 0x17ca <u8g_dev_pb8v1_base_fn+0x82>
    176a:	ce 01       	movw	r24, r28
    176c:	0e 94 f1 0a 	call	0x15e2	; 0x15e2 <u8g_pb_Clear>
    1770:	ce 01       	movw	r24, r28
    1772:	0e 94 d4 0a 	call	0x15a8	; 0x15a8 <u8g_page_First>
    1776:	29 c0       	rjmp	.+82     	; 0x17ca <u8g_dev_pb8v1_base_fn+0x82>
    1778:	46 34       	cpi	r20, 0x46	; 70
    177a:	11 f1       	breq	.+68     	; 0x17c0 <u8g_dev_pb8v1_base_fn+0x78>
    177c:	47 34       	cpi	r20, 0x47	; 71
    177e:	11 f1       	breq	.+68     	; 0x17c4 <u8g_dev_pb8v1_base_fn+0x7c>
    1780:	4b 33       	cpi	r20, 0x3B	; 59
    1782:	19 f5       	brne	.+70     	; 0x17ca <u8g_dev_pb8v1_base_fn+0x82>
    1784:	b9 01       	movw	r22, r18
    1786:	ce 01       	movw	r24, r28
    1788:	0e 94 28 0b 	call	0x1650	; 0x1650 <u8g_pb_Is8PixelVisible>
    178c:	88 23       	and	r24, r24
    178e:	e9 f0       	breq	.+58     	; 0x17ca <u8g_dev_pb8v1_base_fn+0x82>
    1790:	b8 01       	movw	r22, r16
    1792:	ce 01       	movw	r24, r28
    1794:	0e 94 70 0b 	call	0x16e0	; 0x16e0 <u8g_pb8v1_Set8PixelOpt2>
    1798:	18 c0       	rjmp	.+48     	; 0x17ca <u8g_dev_pb8v1_base_fn+0x82>
    179a:	b9 01       	movw	r22, r18
    179c:	ce 01       	movw	r24, r28
    179e:	0e 94 5a 0b 	call	0x16b4	; 0x16b4 <u8g_pb8v1_SetPixel>
    17a2:	13 c0       	rjmp	.+38     	; 0x17ca <u8g_dev_pb8v1_base_fn+0x82>
    17a4:	ce 01       	movw	r24, r28
    17a6:	0e 94 db 0a 	call	0x15b6	; 0x15b6 <u8g_page_Next>
    17aa:	88 23       	and	r24, r24
    17ac:	79 f0       	breq	.+30     	; 0x17cc <u8g_dev_pb8v1_base_fn+0x84>
    17ae:	ce 01       	movw	r24, r28
    17b0:	0e 94 f1 0a 	call	0x15e2	; 0x15e2 <u8g_pb_Clear>
    17b4:	0a c0       	rjmp	.+20     	; 0x17ca <u8g_dev_pb8v1_base_fn+0x82>
    17b6:	b9 01       	movw	r22, r18
    17b8:	ce 01       	movw	r24, r28
    17ba:	0e 94 18 0b 	call	0x1630	; 0x1630 <u8g_pb_GetPageBox>
    17be:	05 c0       	rjmp	.+10     	; 0x17ca <u8g_dev_pb8v1_base_fn+0x82>
    17c0:	8d 81       	ldd	r24, Y+5	; 0x05
    17c2:	01 c0       	rjmp	.+2      	; 0x17c6 <u8g_dev_pb8v1_base_fn+0x7e>
    17c4:	89 81       	ldd	r24, Y+1	; 0x01
    17c6:	f8 01       	movw	r30, r16
    17c8:	80 83       	st	Z, r24
    17ca:	81 e0       	ldi	r24, 0x01	; 1
    17cc:	df 91       	pop	r29
    17ce:	cf 91       	pop	r28
    17d0:	1f 91       	pop	r17
    17d2:	0f 91       	pop	r16
    17d4:	08 95       	ret

000017d6 <u8g_state_dummy_cb>:
    17d6:	08 95       	ret

000017d8 <ws2812_init>:
    17d8:	22 9a       	sbi	0x04, 2	; 4
    17da:	08 95       	ret

000017dc <ws2812_set_red>:
    17dc:	9c 01       	movw	r18, r24
    17de:	22 0f       	add	r18, r18
    17e0:	33 1f       	adc	r19, r19
    17e2:	82 0f       	add	r24, r18
    17e4:	93 1f       	adc	r25, r19
    17e6:	fc 01       	movw	r30, r24
    17e8:	e4 51       	subi	r30, 0x14	; 20
    17ea:	fe 4f       	sbci	r31, 0xFE	; 254
    17ec:	61 83       	std	Z+1, r22	; 0x01
    17ee:	08 95       	ret

000017f0 <ws2812_set_green>:
    17f0:	9c 01       	movw	r18, r24
    17f2:	22 0f       	add	r18, r18
    17f4:	33 1f       	adc	r19, r19
    17f6:	82 0f       	add	r24, r18
    17f8:	93 1f       	adc	r25, r19
    17fa:	fc 01       	movw	r30, r24
    17fc:	e4 51       	subi	r30, 0x14	; 20
    17fe:	fe 4f       	sbci	r31, 0xFE	; 254
    1800:	60 83       	st	Z, r22
    1802:	08 95       	ret

00001804 <__udivmodhi4>:
    1804:	aa 1b       	sub	r26, r26
    1806:	bb 1b       	sub	r27, r27
    1808:	51 e1       	ldi	r21, 0x11	; 17
    180a:	07 c0       	rjmp	.+14     	; 0x181a <__udivmodhi4_ep>

0000180c <__udivmodhi4_loop>:
    180c:	aa 1f       	adc	r26, r26
    180e:	bb 1f       	adc	r27, r27
    1810:	a6 17       	cp	r26, r22
    1812:	b7 07       	cpc	r27, r23
    1814:	10 f0       	brcs	.+4      	; 0x181a <__udivmodhi4_ep>
    1816:	a6 1b       	sub	r26, r22
    1818:	b7 0b       	sbc	r27, r23

0000181a <__udivmodhi4_ep>:
    181a:	88 1f       	adc	r24, r24
    181c:	99 1f       	adc	r25, r25
    181e:	5a 95       	dec	r21
    1820:	a9 f7       	brne	.-22     	; 0x180c <__udivmodhi4_loop>
    1822:	80 95       	com	r24
    1824:	90 95       	com	r25
    1826:	bc 01       	movw	r22, r24
    1828:	cd 01       	movw	r24, r26
    182a:	08 95       	ret

0000182c <__divmodhi4>:
    182c:	97 fb       	bst	r25, 7
    182e:	07 2e       	mov	r0, r23
    1830:	16 f4       	brtc	.+4      	; 0x1836 <__divmodhi4+0xa>
    1832:	00 94       	com	r0
    1834:	07 d0       	rcall	.+14     	; 0x1844 <__divmodhi4_neg1>
    1836:	77 fd       	sbrc	r23, 7
    1838:	09 d0       	rcall	.+18     	; 0x184c <__divmodhi4_neg2>
    183a:	0e 94 02 0c 	call	0x1804	; 0x1804 <__udivmodhi4>
    183e:	07 fc       	sbrc	r0, 7
    1840:	05 d0       	rcall	.+10     	; 0x184c <__divmodhi4_neg2>
    1842:	3e f4       	brtc	.+14     	; 0x1852 <__divmodhi4_exit>

00001844 <__divmodhi4_neg1>:
    1844:	90 95       	com	r25
    1846:	81 95       	neg	r24
    1848:	9f 4f       	sbci	r25, 0xFF	; 255
    184a:	08 95       	ret

0000184c <__divmodhi4_neg2>:
    184c:	70 95       	com	r23
    184e:	61 95       	neg	r22
    1850:	7f 4f       	sbci	r23, 0xFF	; 255

00001852 <__divmodhi4_exit>:
    1852:	08 95       	ret

00001854 <strcpy>:
    1854:	fb 01       	movw	r30, r22
    1856:	dc 01       	movw	r26, r24
    1858:	01 90       	ld	r0, Z+
    185a:	0d 92       	st	X+, r0
    185c:	00 20       	and	r0, r0
    185e:	e1 f7       	brne	.-8      	; 0x1858 <strcpy+0x4>
    1860:	08 95       	ret

00001862 <sprintf>:
    1862:	ae e0       	ldi	r26, 0x0E	; 14
    1864:	b0 e0       	ldi	r27, 0x00	; 0
    1866:	e7 e3       	ldi	r30, 0x37	; 55
    1868:	fc e0       	ldi	r31, 0x0C	; 12
    186a:	0c 94 f2 0e 	jmp	0x1de4	; 0x1de4 <__prologue_saves__+0x1c>
    186e:	0d 89       	ldd	r16, Y+21	; 0x15
    1870:	1e 89       	ldd	r17, Y+22	; 0x16
    1872:	86 e0       	ldi	r24, 0x06	; 6
    1874:	8c 83       	std	Y+4, r24	; 0x04
    1876:	1a 83       	std	Y+2, r17	; 0x02
    1878:	09 83       	std	Y+1, r16	; 0x01
    187a:	8f ef       	ldi	r24, 0xFF	; 255
    187c:	9f e7       	ldi	r25, 0x7F	; 127
    187e:	9e 83       	std	Y+6, r25	; 0x06
    1880:	8d 83       	std	Y+5, r24	; 0x05
    1882:	ae 01       	movw	r20, r28
    1884:	47 5e       	subi	r20, 0xE7	; 231
    1886:	5f 4f       	sbci	r21, 0xFF	; 255
    1888:	6f 89       	ldd	r22, Y+23	; 0x17
    188a:	78 8d       	ldd	r23, Y+24	; 0x18
    188c:	ce 01       	movw	r24, r28
    188e:	01 96       	adiw	r24, 0x01	; 1
    1890:	0e 94 53 0c 	call	0x18a6	; 0x18a6 <vfprintf>
    1894:	ef 81       	ldd	r30, Y+7	; 0x07
    1896:	f8 85       	ldd	r31, Y+8	; 0x08
    1898:	e0 0f       	add	r30, r16
    189a:	f1 1f       	adc	r31, r17
    189c:	10 82       	st	Z, r1
    189e:	2e 96       	adiw	r28, 0x0e	; 14
    18a0:	e4 e0       	ldi	r30, 0x04	; 4
    18a2:	0c 94 0e 0f 	jmp	0x1e1c	; 0x1e1c <__epilogue_restores__+0x1c>

000018a6 <vfprintf>:
    18a6:	ab e0       	ldi	r26, 0x0B	; 11
    18a8:	b0 e0       	ldi	r27, 0x00	; 0
    18aa:	e9 e5       	ldi	r30, 0x59	; 89
    18ac:	fc e0       	ldi	r31, 0x0C	; 12
    18ae:	0c 94 e4 0e 	jmp	0x1dc8	; 0x1dc8 <__prologue_saves__>
    18b2:	6c 01       	movw	r12, r24
    18b4:	7b 01       	movw	r14, r22
    18b6:	8a 01       	movw	r16, r20
    18b8:	fc 01       	movw	r30, r24
    18ba:	17 82       	std	Z+7, r1	; 0x07
    18bc:	16 82       	std	Z+6, r1	; 0x06
    18be:	83 81       	ldd	r24, Z+3	; 0x03
    18c0:	81 ff       	sbrs	r24, 1
    18c2:	cc c1       	rjmp	.+920    	; 0x1c5c <vfprintf+0x3b6>
    18c4:	ce 01       	movw	r24, r28
    18c6:	01 96       	adiw	r24, 0x01	; 1
    18c8:	3c 01       	movw	r6, r24
    18ca:	f6 01       	movw	r30, r12
    18cc:	93 81       	ldd	r25, Z+3	; 0x03
    18ce:	f7 01       	movw	r30, r14
    18d0:	93 fd       	sbrc	r25, 3
    18d2:	85 91       	lpm	r24, Z+
    18d4:	93 ff       	sbrs	r25, 3
    18d6:	81 91       	ld	r24, Z+
    18d8:	7f 01       	movw	r14, r30
    18da:	88 23       	and	r24, r24
    18dc:	09 f4       	brne	.+2      	; 0x18e0 <vfprintf+0x3a>
    18de:	ba c1       	rjmp	.+884    	; 0x1c54 <vfprintf+0x3ae>
    18e0:	85 32       	cpi	r24, 0x25	; 37
    18e2:	39 f4       	brne	.+14     	; 0x18f2 <vfprintf+0x4c>
    18e4:	93 fd       	sbrc	r25, 3
    18e6:	85 91       	lpm	r24, Z+
    18e8:	93 ff       	sbrs	r25, 3
    18ea:	81 91       	ld	r24, Z+
    18ec:	7f 01       	movw	r14, r30
    18ee:	85 32       	cpi	r24, 0x25	; 37
    18f0:	29 f4       	brne	.+10     	; 0x18fc <vfprintf+0x56>
    18f2:	b6 01       	movw	r22, r12
    18f4:	90 e0       	ldi	r25, 0x00	; 0
    18f6:	0e 94 4a 0e 	call	0x1c94	; 0x1c94 <fputc>
    18fa:	e7 cf       	rjmp	.-50     	; 0x18ca <vfprintf+0x24>
    18fc:	91 2c       	mov	r9, r1
    18fe:	21 2c       	mov	r2, r1
    1900:	31 2c       	mov	r3, r1
    1902:	ff e1       	ldi	r31, 0x1F	; 31
    1904:	f3 15       	cp	r31, r3
    1906:	d8 f0       	brcs	.+54     	; 0x193e <vfprintf+0x98>
    1908:	8b 32       	cpi	r24, 0x2B	; 43
    190a:	79 f0       	breq	.+30     	; 0x192a <vfprintf+0x84>
    190c:	38 f4       	brcc	.+14     	; 0x191c <vfprintf+0x76>
    190e:	80 32       	cpi	r24, 0x20	; 32
    1910:	79 f0       	breq	.+30     	; 0x1930 <vfprintf+0x8a>
    1912:	83 32       	cpi	r24, 0x23	; 35
    1914:	a1 f4       	brne	.+40     	; 0x193e <vfprintf+0x98>
    1916:	23 2d       	mov	r18, r3
    1918:	20 61       	ori	r18, 0x10	; 16
    191a:	1d c0       	rjmp	.+58     	; 0x1956 <vfprintf+0xb0>
    191c:	8d 32       	cpi	r24, 0x2D	; 45
    191e:	61 f0       	breq	.+24     	; 0x1938 <vfprintf+0x92>
    1920:	80 33       	cpi	r24, 0x30	; 48
    1922:	69 f4       	brne	.+26     	; 0x193e <vfprintf+0x98>
    1924:	23 2d       	mov	r18, r3
    1926:	21 60       	ori	r18, 0x01	; 1
    1928:	16 c0       	rjmp	.+44     	; 0x1956 <vfprintf+0xb0>
    192a:	83 2d       	mov	r24, r3
    192c:	82 60       	ori	r24, 0x02	; 2
    192e:	38 2e       	mov	r3, r24
    1930:	e3 2d       	mov	r30, r3
    1932:	e4 60       	ori	r30, 0x04	; 4
    1934:	3e 2e       	mov	r3, r30
    1936:	2a c0       	rjmp	.+84     	; 0x198c <vfprintf+0xe6>
    1938:	f3 2d       	mov	r31, r3
    193a:	f8 60       	ori	r31, 0x08	; 8
    193c:	1d c0       	rjmp	.+58     	; 0x1978 <vfprintf+0xd2>
    193e:	37 fc       	sbrc	r3, 7
    1940:	2d c0       	rjmp	.+90     	; 0x199c <vfprintf+0xf6>
    1942:	20 ed       	ldi	r18, 0xD0	; 208
    1944:	28 0f       	add	r18, r24
    1946:	2a 30       	cpi	r18, 0x0A	; 10
    1948:	40 f0       	brcs	.+16     	; 0x195a <vfprintf+0xb4>
    194a:	8e 32       	cpi	r24, 0x2E	; 46
    194c:	b9 f4       	brne	.+46     	; 0x197c <vfprintf+0xd6>
    194e:	36 fc       	sbrc	r3, 6
    1950:	81 c1       	rjmp	.+770    	; 0x1c54 <vfprintf+0x3ae>
    1952:	23 2d       	mov	r18, r3
    1954:	20 64       	ori	r18, 0x40	; 64
    1956:	32 2e       	mov	r3, r18
    1958:	19 c0       	rjmp	.+50     	; 0x198c <vfprintf+0xe6>
    195a:	36 fe       	sbrs	r3, 6
    195c:	06 c0       	rjmp	.+12     	; 0x196a <vfprintf+0xc4>
    195e:	8a e0       	ldi	r24, 0x0A	; 10
    1960:	98 9e       	mul	r9, r24
    1962:	20 0d       	add	r18, r0
    1964:	11 24       	eor	r1, r1
    1966:	92 2e       	mov	r9, r18
    1968:	11 c0       	rjmp	.+34     	; 0x198c <vfprintf+0xe6>
    196a:	ea e0       	ldi	r30, 0x0A	; 10
    196c:	2e 9e       	mul	r2, r30
    196e:	20 0d       	add	r18, r0
    1970:	11 24       	eor	r1, r1
    1972:	22 2e       	mov	r2, r18
    1974:	f3 2d       	mov	r31, r3
    1976:	f0 62       	ori	r31, 0x20	; 32
    1978:	3f 2e       	mov	r3, r31
    197a:	08 c0       	rjmp	.+16     	; 0x198c <vfprintf+0xe6>
    197c:	8c 36       	cpi	r24, 0x6C	; 108
    197e:	21 f4       	brne	.+8      	; 0x1988 <vfprintf+0xe2>
    1980:	83 2d       	mov	r24, r3
    1982:	80 68       	ori	r24, 0x80	; 128
    1984:	38 2e       	mov	r3, r24
    1986:	02 c0       	rjmp	.+4      	; 0x198c <vfprintf+0xe6>
    1988:	88 36       	cpi	r24, 0x68	; 104
    198a:	41 f4       	brne	.+16     	; 0x199c <vfprintf+0xf6>
    198c:	f7 01       	movw	r30, r14
    198e:	93 fd       	sbrc	r25, 3
    1990:	85 91       	lpm	r24, Z+
    1992:	93 ff       	sbrs	r25, 3
    1994:	81 91       	ld	r24, Z+
    1996:	7f 01       	movw	r14, r30
    1998:	81 11       	cpse	r24, r1
    199a:	b3 cf       	rjmp	.-154    	; 0x1902 <vfprintf+0x5c>
    199c:	98 2f       	mov	r25, r24
    199e:	9f 7d       	andi	r25, 0xDF	; 223
    19a0:	95 54       	subi	r25, 0x45	; 69
    19a2:	93 30       	cpi	r25, 0x03	; 3
    19a4:	28 f4       	brcc	.+10     	; 0x19b0 <vfprintf+0x10a>
    19a6:	0c 5f       	subi	r16, 0xFC	; 252
    19a8:	1f 4f       	sbci	r17, 0xFF	; 255
    19aa:	9f e3       	ldi	r25, 0x3F	; 63
    19ac:	99 83       	std	Y+1, r25	; 0x01
    19ae:	0d c0       	rjmp	.+26     	; 0x19ca <vfprintf+0x124>
    19b0:	83 36       	cpi	r24, 0x63	; 99
    19b2:	31 f0       	breq	.+12     	; 0x19c0 <vfprintf+0x11a>
    19b4:	83 37       	cpi	r24, 0x73	; 115
    19b6:	71 f0       	breq	.+28     	; 0x19d4 <vfprintf+0x12e>
    19b8:	83 35       	cpi	r24, 0x53	; 83
    19ba:	09 f0       	breq	.+2      	; 0x19be <vfprintf+0x118>
    19bc:	59 c0       	rjmp	.+178    	; 0x1a70 <vfprintf+0x1ca>
    19be:	21 c0       	rjmp	.+66     	; 0x1a02 <vfprintf+0x15c>
    19c0:	f8 01       	movw	r30, r16
    19c2:	80 81       	ld	r24, Z
    19c4:	89 83       	std	Y+1, r24	; 0x01
    19c6:	0e 5f       	subi	r16, 0xFE	; 254
    19c8:	1f 4f       	sbci	r17, 0xFF	; 255
    19ca:	88 24       	eor	r8, r8
    19cc:	83 94       	inc	r8
    19ce:	91 2c       	mov	r9, r1
    19d0:	53 01       	movw	r10, r6
    19d2:	13 c0       	rjmp	.+38     	; 0x19fa <vfprintf+0x154>
    19d4:	28 01       	movw	r4, r16
    19d6:	f2 e0       	ldi	r31, 0x02	; 2
    19d8:	4f 0e       	add	r4, r31
    19da:	51 1c       	adc	r5, r1
    19dc:	f8 01       	movw	r30, r16
    19de:	a0 80       	ld	r10, Z
    19e0:	b1 80       	ldd	r11, Z+1	; 0x01
    19e2:	36 fe       	sbrs	r3, 6
    19e4:	03 c0       	rjmp	.+6      	; 0x19ec <vfprintf+0x146>
    19e6:	69 2d       	mov	r22, r9
    19e8:	70 e0       	ldi	r23, 0x00	; 0
    19ea:	02 c0       	rjmp	.+4      	; 0x19f0 <vfprintf+0x14a>
    19ec:	6f ef       	ldi	r22, 0xFF	; 255
    19ee:	7f ef       	ldi	r23, 0xFF	; 255
    19f0:	c5 01       	movw	r24, r10
    19f2:	0e 94 3f 0e 	call	0x1c7e	; 0x1c7e <strnlen>
    19f6:	4c 01       	movw	r8, r24
    19f8:	82 01       	movw	r16, r4
    19fa:	f3 2d       	mov	r31, r3
    19fc:	ff 77       	andi	r31, 0x7F	; 127
    19fe:	3f 2e       	mov	r3, r31
    1a00:	16 c0       	rjmp	.+44     	; 0x1a2e <vfprintf+0x188>
    1a02:	28 01       	movw	r4, r16
    1a04:	22 e0       	ldi	r18, 0x02	; 2
    1a06:	42 0e       	add	r4, r18
    1a08:	51 1c       	adc	r5, r1
    1a0a:	f8 01       	movw	r30, r16
    1a0c:	a0 80       	ld	r10, Z
    1a0e:	b1 80       	ldd	r11, Z+1	; 0x01
    1a10:	36 fe       	sbrs	r3, 6
    1a12:	03 c0       	rjmp	.+6      	; 0x1a1a <vfprintf+0x174>
    1a14:	69 2d       	mov	r22, r9
    1a16:	70 e0       	ldi	r23, 0x00	; 0
    1a18:	02 c0       	rjmp	.+4      	; 0x1a1e <vfprintf+0x178>
    1a1a:	6f ef       	ldi	r22, 0xFF	; 255
    1a1c:	7f ef       	ldi	r23, 0xFF	; 255
    1a1e:	c5 01       	movw	r24, r10
    1a20:	0e 94 34 0e 	call	0x1c68	; 0x1c68 <strnlen_P>
    1a24:	4c 01       	movw	r8, r24
    1a26:	f3 2d       	mov	r31, r3
    1a28:	f0 68       	ori	r31, 0x80	; 128
    1a2a:	3f 2e       	mov	r3, r31
    1a2c:	82 01       	movw	r16, r4
    1a2e:	33 fc       	sbrc	r3, 3
    1a30:	1b c0       	rjmp	.+54     	; 0x1a68 <vfprintf+0x1c2>
    1a32:	82 2d       	mov	r24, r2
    1a34:	90 e0       	ldi	r25, 0x00	; 0
    1a36:	88 16       	cp	r8, r24
    1a38:	99 06       	cpc	r9, r25
    1a3a:	b0 f4       	brcc	.+44     	; 0x1a68 <vfprintf+0x1c2>
    1a3c:	b6 01       	movw	r22, r12
    1a3e:	80 e2       	ldi	r24, 0x20	; 32
    1a40:	90 e0       	ldi	r25, 0x00	; 0
    1a42:	0e 94 4a 0e 	call	0x1c94	; 0x1c94 <fputc>
    1a46:	2a 94       	dec	r2
    1a48:	f4 cf       	rjmp	.-24     	; 0x1a32 <vfprintf+0x18c>
    1a4a:	f5 01       	movw	r30, r10
    1a4c:	37 fc       	sbrc	r3, 7
    1a4e:	85 91       	lpm	r24, Z+
    1a50:	37 fe       	sbrs	r3, 7
    1a52:	81 91       	ld	r24, Z+
    1a54:	5f 01       	movw	r10, r30
    1a56:	b6 01       	movw	r22, r12
    1a58:	90 e0       	ldi	r25, 0x00	; 0
    1a5a:	0e 94 4a 0e 	call	0x1c94	; 0x1c94 <fputc>
    1a5e:	21 10       	cpse	r2, r1
    1a60:	2a 94       	dec	r2
    1a62:	21 e0       	ldi	r18, 0x01	; 1
    1a64:	82 1a       	sub	r8, r18
    1a66:	91 08       	sbc	r9, r1
    1a68:	81 14       	cp	r8, r1
    1a6a:	91 04       	cpc	r9, r1
    1a6c:	71 f7       	brne	.-36     	; 0x1a4a <vfprintf+0x1a4>
    1a6e:	e8 c0       	rjmp	.+464    	; 0x1c40 <vfprintf+0x39a>
    1a70:	84 36       	cpi	r24, 0x64	; 100
    1a72:	11 f0       	breq	.+4      	; 0x1a78 <vfprintf+0x1d2>
    1a74:	89 36       	cpi	r24, 0x69	; 105
    1a76:	41 f5       	brne	.+80     	; 0x1ac8 <vfprintf+0x222>
    1a78:	f8 01       	movw	r30, r16
    1a7a:	37 fe       	sbrs	r3, 7
    1a7c:	07 c0       	rjmp	.+14     	; 0x1a8c <vfprintf+0x1e6>
    1a7e:	60 81       	ld	r22, Z
    1a80:	71 81       	ldd	r23, Z+1	; 0x01
    1a82:	82 81       	ldd	r24, Z+2	; 0x02
    1a84:	93 81       	ldd	r25, Z+3	; 0x03
    1a86:	0c 5f       	subi	r16, 0xFC	; 252
    1a88:	1f 4f       	sbci	r17, 0xFF	; 255
    1a8a:	08 c0       	rjmp	.+16     	; 0x1a9c <vfprintf+0x1f6>
    1a8c:	60 81       	ld	r22, Z
    1a8e:	71 81       	ldd	r23, Z+1	; 0x01
    1a90:	07 2e       	mov	r0, r23
    1a92:	00 0c       	add	r0, r0
    1a94:	88 0b       	sbc	r24, r24
    1a96:	99 0b       	sbc	r25, r25
    1a98:	0e 5f       	subi	r16, 0xFE	; 254
    1a9a:	1f 4f       	sbci	r17, 0xFF	; 255
    1a9c:	f3 2d       	mov	r31, r3
    1a9e:	ff 76       	andi	r31, 0x6F	; 111
    1aa0:	3f 2e       	mov	r3, r31
    1aa2:	97 ff       	sbrs	r25, 7
    1aa4:	09 c0       	rjmp	.+18     	; 0x1ab8 <vfprintf+0x212>
    1aa6:	90 95       	com	r25
    1aa8:	80 95       	com	r24
    1aaa:	70 95       	com	r23
    1aac:	61 95       	neg	r22
    1aae:	7f 4f       	sbci	r23, 0xFF	; 255
    1ab0:	8f 4f       	sbci	r24, 0xFF	; 255
    1ab2:	9f 4f       	sbci	r25, 0xFF	; 255
    1ab4:	f0 68       	ori	r31, 0x80	; 128
    1ab6:	3f 2e       	mov	r3, r31
    1ab8:	2a e0       	ldi	r18, 0x0A	; 10
    1aba:	30 e0       	ldi	r19, 0x00	; 0
    1abc:	a3 01       	movw	r20, r6
    1abe:	0e 94 86 0e 	call	0x1d0c	; 0x1d0c <__ultoa_invert>
    1ac2:	88 2e       	mov	r8, r24
    1ac4:	86 18       	sub	r8, r6
    1ac6:	45 c0       	rjmp	.+138    	; 0x1b52 <vfprintf+0x2ac>
    1ac8:	85 37       	cpi	r24, 0x75	; 117
    1aca:	31 f4       	brne	.+12     	; 0x1ad8 <vfprintf+0x232>
    1acc:	23 2d       	mov	r18, r3
    1ace:	2f 7e       	andi	r18, 0xEF	; 239
    1ad0:	b2 2e       	mov	r11, r18
    1ad2:	2a e0       	ldi	r18, 0x0A	; 10
    1ad4:	30 e0       	ldi	r19, 0x00	; 0
    1ad6:	25 c0       	rjmp	.+74     	; 0x1b22 <vfprintf+0x27c>
    1ad8:	93 2d       	mov	r25, r3
    1ada:	99 7f       	andi	r25, 0xF9	; 249
    1adc:	b9 2e       	mov	r11, r25
    1ade:	8f 36       	cpi	r24, 0x6F	; 111
    1ae0:	c1 f0       	breq	.+48     	; 0x1b12 <vfprintf+0x26c>
    1ae2:	18 f4       	brcc	.+6      	; 0x1aea <vfprintf+0x244>
    1ae4:	88 35       	cpi	r24, 0x58	; 88
    1ae6:	79 f0       	breq	.+30     	; 0x1b06 <vfprintf+0x260>
    1ae8:	b5 c0       	rjmp	.+362    	; 0x1c54 <vfprintf+0x3ae>
    1aea:	80 37       	cpi	r24, 0x70	; 112
    1aec:	19 f0       	breq	.+6      	; 0x1af4 <vfprintf+0x24e>
    1aee:	88 37       	cpi	r24, 0x78	; 120
    1af0:	21 f0       	breq	.+8      	; 0x1afa <vfprintf+0x254>
    1af2:	b0 c0       	rjmp	.+352    	; 0x1c54 <vfprintf+0x3ae>
    1af4:	e9 2f       	mov	r30, r25
    1af6:	e0 61       	ori	r30, 0x10	; 16
    1af8:	be 2e       	mov	r11, r30
    1afa:	b4 fe       	sbrs	r11, 4
    1afc:	0d c0       	rjmp	.+26     	; 0x1b18 <vfprintf+0x272>
    1afe:	fb 2d       	mov	r31, r11
    1b00:	f4 60       	ori	r31, 0x04	; 4
    1b02:	bf 2e       	mov	r11, r31
    1b04:	09 c0       	rjmp	.+18     	; 0x1b18 <vfprintf+0x272>
    1b06:	34 fe       	sbrs	r3, 4
    1b08:	0a c0       	rjmp	.+20     	; 0x1b1e <vfprintf+0x278>
    1b0a:	29 2f       	mov	r18, r25
    1b0c:	26 60       	ori	r18, 0x06	; 6
    1b0e:	b2 2e       	mov	r11, r18
    1b10:	06 c0       	rjmp	.+12     	; 0x1b1e <vfprintf+0x278>
    1b12:	28 e0       	ldi	r18, 0x08	; 8
    1b14:	30 e0       	ldi	r19, 0x00	; 0
    1b16:	05 c0       	rjmp	.+10     	; 0x1b22 <vfprintf+0x27c>
    1b18:	20 e1       	ldi	r18, 0x10	; 16
    1b1a:	30 e0       	ldi	r19, 0x00	; 0
    1b1c:	02 c0       	rjmp	.+4      	; 0x1b22 <vfprintf+0x27c>
    1b1e:	20 e1       	ldi	r18, 0x10	; 16
    1b20:	32 e0       	ldi	r19, 0x02	; 2
    1b22:	f8 01       	movw	r30, r16
    1b24:	b7 fe       	sbrs	r11, 7
    1b26:	07 c0       	rjmp	.+14     	; 0x1b36 <vfprintf+0x290>
    1b28:	60 81       	ld	r22, Z
    1b2a:	71 81       	ldd	r23, Z+1	; 0x01
    1b2c:	82 81       	ldd	r24, Z+2	; 0x02
    1b2e:	93 81       	ldd	r25, Z+3	; 0x03
    1b30:	0c 5f       	subi	r16, 0xFC	; 252
    1b32:	1f 4f       	sbci	r17, 0xFF	; 255
    1b34:	06 c0       	rjmp	.+12     	; 0x1b42 <vfprintf+0x29c>
    1b36:	60 81       	ld	r22, Z
    1b38:	71 81       	ldd	r23, Z+1	; 0x01
    1b3a:	80 e0       	ldi	r24, 0x00	; 0
    1b3c:	90 e0       	ldi	r25, 0x00	; 0
    1b3e:	0e 5f       	subi	r16, 0xFE	; 254
    1b40:	1f 4f       	sbci	r17, 0xFF	; 255
    1b42:	a3 01       	movw	r20, r6
    1b44:	0e 94 86 0e 	call	0x1d0c	; 0x1d0c <__ultoa_invert>
    1b48:	88 2e       	mov	r8, r24
    1b4a:	86 18       	sub	r8, r6
    1b4c:	fb 2d       	mov	r31, r11
    1b4e:	ff 77       	andi	r31, 0x7F	; 127
    1b50:	3f 2e       	mov	r3, r31
    1b52:	36 fe       	sbrs	r3, 6
    1b54:	0d c0       	rjmp	.+26     	; 0x1b70 <vfprintf+0x2ca>
    1b56:	23 2d       	mov	r18, r3
    1b58:	2e 7f       	andi	r18, 0xFE	; 254
    1b5a:	a2 2e       	mov	r10, r18
    1b5c:	89 14       	cp	r8, r9
    1b5e:	58 f4       	brcc	.+22     	; 0x1b76 <vfprintf+0x2d0>
    1b60:	34 fe       	sbrs	r3, 4
    1b62:	0b c0       	rjmp	.+22     	; 0x1b7a <vfprintf+0x2d4>
    1b64:	32 fc       	sbrc	r3, 2
    1b66:	09 c0       	rjmp	.+18     	; 0x1b7a <vfprintf+0x2d4>
    1b68:	83 2d       	mov	r24, r3
    1b6a:	8e 7e       	andi	r24, 0xEE	; 238
    1b6c:	a8 2e       	mov	r10, r24
    1b6e:	05 c0       	rjmp	.+10     	; 0x1b7a <vfprintf+0x2d4>
    1b70:	b8 2c       	mov	r11, r8
    1b72:	a3 2c       	mov	r10, r3
    1b74:	03 c0       	rjmp	.+6      	; 0x1b7c <vfprintf+0x2d6>
    1b76:	b8 2c       	mov	r11, r8
    1b78:	01 c0       	rjmp	.+2      	; 0x1b7c <vfprintf+0x2d6>
    1b7a:	b9 2c       	mov	r11, r9
    1b7c:	a4 fe       	sbrs	r10, 4
    1b7e:	0f c0       	rjmp	.+30     	; 0x1b9e <vfprintf+0x2f8>
    1b80:	fe 01       	movw	r30, r28
    1b82:	e8 0d       	add	r30, r8
    1b84:	f1 1d       	adc	r31, r1
    1b86:	80 81       	ld	r24, Z
    1b88:	80 33       	cpi	r24, 0x30	; 48
    1b8a:	21 f4       	brne	.+8      	; 0x1b94 <vfprintf+0x2ee>
    1b8c:	9a 2d       	mov	r25, r10
    1b8e:	99 7e       	andi	r25, 0xE9	; 233
    1b90:	a9 2e       	mov	r10, r25
    1b92:	09 c0       	rjmp	.+18     	; 0x1ba6 <vfprintf+0x300>
    1b94:	a2 fe       	sbrs	r10, 2
    1b96:	06 c0       	rjmp	.+12     	; 0x1ba4 <vfprintf+0x2fe>
    1b98:	b3 94       	inc	r11
    1b9a:	b3 94       	inc	r11
    1b9c:	04 c0       	rjmp	.+8      	; 0x1ba6 <vfprintf+0x300>
    1b9e:	8a 2d       	mov	r24, r10
    1ba0:	86 78       	andi	r24, 0x86	; 134
    1ba2:	09 f0       	breq	.+2      	; 0x1ba6 <vfprintf+0x300>
    1ba4:	b3 94       	inc	r11
    1ba6:	a3 fc       	sbrc	r10, 3
    1ba8:	11 c0       	rjmp	.+34     	; 0x1bcc <vfprintf+0x326>
    1baa:	a0 fe       	sbrs	r10, 0
    1bac:	06 c0       	rjmp	.+12     	; 0x1bba <vfprintf+0x314>
    1bae:	b2 14       	cp	r11, r2
    1bb0:	88 f4       	brcc	.+34     	; 0x1bd4 <vfprintf+0x32e>
    1bb2:	28 0c       	add	r2, r8
    1bb4:	92 2c       	mov	r9, r2
    1bb6:	9b 18       	sub	r9, r11
    1bb8:	0e c0       	rjmp	.+28     	; 0x1bd6 <vfprintf+0x330>
    1bba:	b2 14       	cp	r11, r2
    1bbc:	60 f4       	brcc	.+24     	; 0x1bd6 <vfprintf+0x330>
    1bbe:	b6 01       	movw	r22, r12
    1bc0:	80 e2       	ldi	r24, 0x20	; 32
    1bc2:	90 e0       	ldi	r25, 0x00	; 0
    1bc4:	0e 94 4a 0e 	call	0x1c94	; 0x1c94 <fputc>
    1bc8:	b3 94       	inc	r11
    1bca:	f7 cf       	rjmp	.-18     	; 0x1bba <vfprintf+0x314>
    1bcc:	b2 14       	cp	r11, r2
    1bce:	18 f4       	brcc	.+6      	; 0x1bd6 <vfprintf+0x330>
    1bd0:	2b 18       	sub	r2, r11
    1bd2:	02 c0       	rjmp	.+4      	; 0x1bd8 <vfprintf+0x332>
    1bd4:	98 2c       	mov	r9, r8
    1bd6:	21 2c       	mov	r2, r1
    1bd8:	a4 fe       	sbrs	r10, 4
    1bda:	10 c0       	rjmp	.+32     	; 0x1bfc <vfprintf+0x356>
    1bdc:	b6 01       	movw	r22, r12
    1bde:	80 e3       	ldi	r24, 0x30	; 48
    1be0:	90 e0       	ldi	r25, 0x00	; 0
    1be2:	0e 94 4a 0e 	call	0x1c94	; 0x1c94 <fputc>
    1be6:	a2 fe       	sbrs	r10, 2
    1be8:	17 c0       	rjmp	.+46     	; 0x1c18 <vfprintf+0x372>
    1bea:	a1 fc       	sbrc	r10, 1
    1bec:	03 c0       	rjmp	.+6      	; 0x1bf4 <vfprintf+0x34e>
    1bee:	88 e7       	ldi	r24, 0x78	; 120
    1bf0:	90 e0       	ldi	r25, 0x00	; 0
    1bf2:	02 c0       	rjmp	.+4      	; 0x1bf8 <vfprintf+0x352>
    1bf4:	88 e5       	ldi	r24, 0x58	; 88
    1bf6:	90 e0       	ldi	r25, 0x00	; 0
    1bf8:	b6 01       	movw	r22, r12
    1bfa:	0c c0       	rjmp	.+24     	; 0x1c14 <vfprintf+0x36e>
    1bfc:	8a 2d       	mov	r24, r10
    1bfe:	86 78       	andi	r24, 0x86	; 134
    1c00:	59 f0       	breq	.+22     	; 0x1c18 <vfprintf+0x372>
    1c02:	a1 fe       	sbrs	r10, 1
    1c04:	02 c0       	rjmp	.+4      	; 0x1c0a <vfprintf+0x364>
    1c06:	8b e2       	ldi	r24, 0x2B	; 43
    1c08:	01 c0       	rjmp	.+2      	; 0x1c0c <vfprintf+0x366>
    1c0a:	80 e2       	ldi	r24, 0x20	; 32
    1c0c:	a7 fc       	sbrc	r10, 7
    1c0e:	8d e2       	ldi	r24, 0x2D	; 45
    1c10:	b6 01       	movw	r22, r12
    1c12:	90 e0       	ldi	r25, 0x00	; 0
    1c14:	0e 94 4a 0e 	call	0x1c94	; 0x1c94 <fputc>
    1c18:	89 14       	cp	r8, r9
    1c1a:	38 f4       	brcc	.+14     	; 0x1c2a <vfprintf+0x384>
    1c1c:	b6 01       	movw	r22, r12
    1c1e:	80 e3       	ldi	r24, 0x30	; 48
    1c20:	90 e0       	ldi	r25, 0x00	; 0
    1c22:	0e 94 4a 0e 	call	0x1c94	; 0x1c94 <fputc>
    1c26:	9a 94       	dec	r9
    1c28:	f7 cf       	rjmp	.-18     	; 0x1c18 <vfprintf+0x372>
    1c2a:	8a 94       	dec	r8
    1c2c:	f3 01       	movw	r30, r6
    1c2e:	e8 0d       	add	r30, r8
    1c30:	f1 1d       	adc	r31, r1
    1c32:	80 81       	ld	r24, Z
    1c34:	b6 01       	movw	r22, r12
    1c36:	90 e0       	ldi	r25, 0x00	; 0
    1c38:	0e 94 4a 0e 	call	0x1c94	; 0x1c94 <fputc>
    1c3c:	81 10       	cpse	r8, r1
    1c3e:	f5 cf       	rjmp	.-22     	; 0x1c2a <vfprintf+0x384>
    1c40:	22 20       	and	r2, r2
    1c42:	09 f4       	brne	.+2      	; 0x1c46 <vfprintf+0x3a0>
    1c44:	42 ce       	rjmp	.-892    	; 0x18ca <vfprintf+0x24>
    1c46:	b6 01       	movw	r22, r12
    1c48:	80 e2       	ldi	r24, 0x20	; 32
    1c4a:	90 e0       	ldi	r25, 0x00	; 0
    1c4c:	0e 94 4a 0e 	call	0x1c94	; 0x1c94 <fputc>
    1c50:	2a 94       	dec	r2
    1c52:	f6 cf       	rjmp	.-20     	; 0x1c40 <vfprintf+0x39a>
    1c54:	f6 01       	movw	r30, r12
    1c56:	86 81       	ldd	r24, Z+6	; 0x06
    1c58:	97 81       	ldd	r25, Z+7	; 0x07
    1c5a:	02 c0       	rjmp	.+4      	; 0x1c60 <vfprintf+0x3ba>
    1c5c:	8f ef       	ldi	r24, 0xFF	; 255
    1c5e:	9f ef       	ldi	r25, 0xFF	; 255
    1c60:	2b 96       	adiw	r28, 0x0b	; 11
    1c62:	e2 e1       	ldi	r30, 0x12	; 18
    1c64:	0c 94 00 0f 	jmp	0x1e00	; 0x1e00 <__epilogue_restores__>

00001c68 <strnlen_P>:
    1c68:	fc 01       	movw	r30, r24
    1c6a:	05 90       	lpm	r0, Z+
    1c6c:	61 50       	subi	r22, 0x01	; 1
    1c6e:	70 40       	sbci	r23, 0x00	; 0
    1c70:	01 10       	cpse	r0, r1
    1c72:	d8 f7       	brcc	.-10     	; 0x1c6a <strnlen_P+0x2>
    1c74:	80 95       	com	r24
    1c76:	90 95       	com	r25
    1c78:	8e 0f       	add	r24, r30
    1c7a:	9f 1f       	adc	r25, r31
    1c7c:	08 95       	ret

00001c7e <strnlen>:
    1c7e:	fc 01       	movw	r30, r24
    1c80:	61 50       	subi	r22, 0x01	; 1
    1c82:	70 40       	sbci	r23, 0x00	; 0
    1c84:	01 90       	ld	r0, Z+
    1c86:	01 10       	cpse	r0, r1
    1c88:	d8 f7       	brcc	.-10     	; 0x1c80 <strnlen+0x2>
    1c8a:	80 95       	com	r24
    1c8c:	90 95       	com	r25
    1c8e:	8e 0f       	add	r24, r30
    1c90:	9f 1f       	adc	r25, r31
    1c92:	08 95       	ret

00001c94 <fputc>:
    1c94:	0f 93       	push	r16
    1c96:	1f 93       	push	r17
    1c98:	cf 93       	push	r28
    1c9a:	df 93       	push	r29
    1c9c:	fb 01       	movw	r30, r22
    1c9e:	23 81       	ldd	r18, Z+3	; 0x03
    1ca0:	21 fd       	sbrc	r18, 1
    1ca2:	03 c0       	rjmp	.+6      	; 0x1caa <fputc+0x16>
    1ca4:	8f ef       	ldi	r24, 0xFF	; 255
    1ca6:	9f ef       	ldi	r25, 0xFF	; 255
    1ca8:	2c c0       	rjmp	.+88     	; 0x1d02 <fputc+0x6e>
    1caa:	22 ff       	sbrs	r18, 2
    1cac:	16 c0       	rjmp	.+44     	; 0x1cda <fputc+0x46>
    1cae:	46 81       	ldd	r20, Z+6	; 0x06
    1cb0:	57 81       	ldd	r21, Z+7	; 0x07
    1cb2:	24 81       	ldd	r18, Z+4	; 0x04
    1cb4:	35 81       	ldd	r19, Z+5	; 0x05
    1cb6:	42 17       	cp	r20, r18
    1cb8:	53 07       	cpc	r21, r19
    1cba:	44 f4       	brge	.+16     	; 0x1ccc <fputc+0x38>
    1cbc:	a0 81       	ld	r26, Z
    1cbe:	b1 81       	ldd	r27, Z+1	; 0x01
    1cc0:	9d 01       	movw	r18, r26
    1cc2:	2f 5f       	subi	r18, 0xFF	; 255
    1cc4:	3f 4f       	sbci	r19, 0xFF	; 255
    1cc6:	31 83       	std	Z+1, r19	; 0x01
    1cc8:	20 83       	st	Z, r18
    1cca:	8c 93       	st	X, r24
    1ccc:	26 81       	ldd	r18, Z+6	; 0x06
    1cce:	37 81       	ldd	r19, Z+7	; 0x07
    1cd0:	2f 5f       	subi	r18, 0xFF	; 255
    1cd2:	3f 4f       	sbci	r19, 0xFF	; 255
    1cd4:	37 83       	std	Z+7, r19	; 0x07
    1cd6:	26 83       	std	Z+6, r18	; 0x06
    1cd8:	14 c0       	rjmp	.+40     	; 0x1d02 <fputc+0x6e>
    1cda:	8b 01       	movw	r16, r22
    1cdc:	ec 01       	movw	r28, r24
    1cde:	fb 01       	movw	r30, r22
    1ce0:	00 84       	ldd	r0, Z+8	; 0x08
    1ce2:	f1 85       	ldd	r31, Z+9	; 0x09
    1ce4:	e0 2d       	mov	r30, r0
    1ce6:	09 95       	icall
    1ce8:	89 2b       	or	r24, r25
    1cea:	e1 f6       	brne	.-72     	; 0x1ca4 <fputc+0x10>
    1cec:	d8 01       	movw	r26, r16
    1cee:	16 96       	adiw	r26, 0x06	; 6
    1cf0:	8d 91       	ld	r24, X+
    1cf2:	9c 91       	ld	r25, X
    1cf4:	17 97       	sbiw	r26, 0x07	; 7
    1cf6:	01 96       	adiw	r24, 0x01	; 1
    1cf8:	17 96       	adiw	r26, 0x07	; 7
    1cfa:	9c 93       	st	X, r25
    1cfc:	8e 93       	st	-X, r24
    1cfe:	16 97       	sbiw	r26, 0x06	; 6
    1d00:	ce 01       	movw	r24, r28
    1d02:	df 91       	pop	r29
    1d04:	cf 91       	pop	r28
    1d06:	1f 91       	pop	r17
    1d08:	0f 91       	pop	r16
    1d0a:	08 95       	ret

00001d0c <__ultoa_invert>:
    1d0c:	fa 01       	movw	r30, r20
    1d0e:	aa 27       	eor	r26, r26
    1d10:	28 30       	cpi	r18, 0x08	; 8
    1d12:	51 f1       	breq	.+84     	; 0x1d68 <__ultoa_invert+0x5c>
    1d14:	20 31       	cpi	r18, 0x10	; 16
    1d16:	81 f1       	breq	.+96     	; 0x1d78 <__ultoa_invert+0x6c>
    1d18:	e8 94       	clt
    1d1a:	6f 93       	push	r22
    1d1c:	6e 7f       	andi	r22, 0xFE	; 254
    1d1e:	6e 5f       	subi	r22, 0xFE	; 254
    1d20:	7f 4f       	sbci	r23, 0xFF	; 255
    1d22:	8f 4f       	sbci	r24, 0xFF	; 255
    1d24:	9f 4f       	sbci	r25, 0xFF	; 255
    1d26:	af 4f       	sbci	r26, 0xFF	; 255
    1d28:	b1 e0       	ldi	r27, 0x01	; 1
    1d2a:	3e d0       	rcall	.+124    	; 0x1da8 <__ultoa_invert+0x9c>
    1d2c:	b4 e0       	ldi	r27, 0x04	; 4
    1d2e:	3c d0       	rcall	.+120    	; 0x1da8 <__ultoa_invert+0x9c>
    1d30:	67 0f       	add	r22, r23
    1d32:	78 1f       	adc	r23, r24
    1d34:	89 1f       	adc	r24, r25
    1d36:	9a 1f       	adc	r25, r26
    1d38:	a1 1d       	adc	r26, r1
    1d3a:	68 0f       	add	r22, r24
    1d3c:	79 1f       	adc	r23, r25
    1d3e:	8a 1f       	adc	r24, r26
    1d40:	91 1d       	adc	r25, r1
    1d42:	a1 1d       	adc	r26, r1
    1d44:	6a 0f       	add	r22, r26
    1d46:	71 1d       	adc	r23, r1
    1d48:	81 1d       	adc	r24, r1
    1d4a:	91 1d       	adc	r25, r1
    1d4c:	a1 1d       	adc	r26, r1
    1d4e:	20 d0       	rcall	.+64     	; 0x1d90 <__ultoa_invert+0x84>
    1d50:	09 f4       	brne	.+2      	; 0x1d54 <__ultoa_invert+0x48>
    1d52:	68 94       	set
    1d54:	3f 91       	pop	r19
    1d56:	2a e0       	ldi	r18, 0x0A	; 10
    1d58:	26 9f       	mul	r18, r22
    1d5a:	11 24       	eor	r1, r1
    1d5c:	30 19       	sub	r19, r0
    1d5e:	30 5d       	subi	r19, 0xD0	; 208
    1d60:	31 93       	st	Z+, r19
    1d62:	de f6       	brtc	.-74     	; 0x1d1a <__ultoa_invert+0xe>
    1d64:	cf 01       	movw	r24, r30
    1d66:	08 95       	ret
    1d68:	46 2f       	mov	r20, r22
    1d6a:	47 70       	andi	r20, 0x07	; 7
    1d6c:	40 5d       	subi	r20, 0xD0	; 208
    1d6e:	41 93       	st	Z+, r20
    1d70:	b3 e0       	ldi	r27, 0x03	; 3
    1d72:	0f d0       	rcall	.+30     	; 0x1d92 <__ultoa_invert+0x86>
    1d74:	c9 f7       	brne	.-14     	; 0x1d68 <__ultoa_invert+0x5c>
    1d76:	f6 cf       	rjmp	.-20     	; 0x1d64 <__ultoa_invert+0x58>
    1d78:	46 2f       	mov	r20, r22
    1d7a:	4f 70       	andi	r20, 0x0F	; 15
    1d7c:	40 5d       	subi	r20, 0xD0	; 208
    1d7e:	4a 33       	cpi	r20, 0x3A	; 58
    1d80:	18 f0       	brcs	.+6      	; 0x1d88 <__ultoa_invert+0x7c>
    1d82:	49 5d       	subi	r20, 0xD9	; 217
    1d84:	31 fd       	sbrc	r19, 1
    1d86:	40 52       	subi	r20, 0x20	; 32
    1d88:	41 93       	st	Z+, r20
    1d8a:	02 d0       	rcall	.+4      	; 0x1d90 <__ultoa_invert+0x84>
    1d8c:	a9 f7       	brne	.-22     	; 0x1d78 <__ultoa_invert+0x6c>
    1d8e:	ea cf       	rjmp	.-44     	; 0x1d64 <__ultoa_invert+0x58>
    1d90:	b4 e0       	ldi	r27, 0x04	; 4
    1d92:	a6 95       	lsr	r26
    1d94:	97 95       	ror	r25
    1d96:	87 95       	ror	r24
    1d98:	77 95       	ror	r23
    1d9a:	67 95       	ror	r22
    1d9c:	ba 95       	dec	r27
    1d9e:	c9 f7       	brne	.-14     	; 0x1d92 <__ultoa_invert+0x86>
    1da0:	00 97       	sbiw	r24, 0x00	; 0
    1da2:	61 05       	cpc	r22, r1
    1da4:	71 05       	cpc	r23, r1
    1da6:	08 95       	ret
    1da8:	9b 01       	movw	r18, r22
    1daa:	ac 01       	movw	r20, r24
    1dac:	0a 2e       	mov	r0, r26
    1dae:	06 94       	lsr	r0
    1db0:	57 95       	ror	r21
    1db2:	47 95       	ror	r20
    1db4:	37 95       	ror	r19
    1db6:	27 95       	ror	r18
    1db8:	ba 95       	dec	r27
    1dba:	c9 f7       	brne	.-14     	; 0x1dae <__ultoa_invert+0xa2>
    1dbc:	62 0f       	add	r22, r18
    1dbe:	73 1f       	adc	r23, r19
    1dc0:	84 1f       	adc	r24, r20
    1dc2:	95 1f       	adc	r25, r21
    1dc4:	a0 1d       	adc	r26, r0
    1dc6:	08 95       	ret

00001dc8 <__prologue_saves__>:
    1dc8:	2f 92       	push	r2
    1dca:	3f 92       	push	r3
    1dcc:	4f 92       	push	r4
    1dce:	5f 92       	push	r5
    1dd0:	6f 92       	push	r6
    1dd2:	7f 92       	push	r7
    1dd4:	8f 92       	push	r8
    1dd6:	9f 92       	push	r9
    1dd8:	af 92       	push	r10
    1dda:	bf 92       	push	r11
    1ddc:	cf 92       	push	r12
    1dde:	df 92       	push	r13
    1de0:	ef 92       	push	r14
    1de2:	ff 92       	push	r15
    1de4:	0f 93       	push	r16
    1de6:	1f 93       	push	r17
    1de8:	cf 93       	push	r28
    1dea:	df 93       	push	r29
    1dec:	cd b7       	in	r28, 0x3d	; 61
    1dee:	de b7       	in	r29, 0x3e	; 62
    1df0:	ca 1b       	sub	r28, r26
    1df2:	db 0b       	sbc	r29, r27
    1df4:	0f b6       	in	r0, 0x3f	; 63
    1df6:	f8 94       	cli
    1df8:	de bf       	out	0x3e, r29	; 62
    1dfa:	0f be       	out	0x3f, r0	; 63
    1dfc:	cd bf       	out	0x3d, r28	; 61
    1dfe:	09 94       	ijmp

00001e00 <__epilogue_restores__>:
    1e00:	2a 88       	ldd	r2, Y+18	; 0x12
    1e02:	39 88       	ldd	r3, Y+17	; 0x11
    1e04:	48 88       	ldd	r4, Y+16	; 0x10
    1e06:	5f 84       	ldd	r5, Y+15	; 0x0f
    1e08:	6e 84       	ldd	r6, Y+14	; 0x0e
    1e0a:	7d 84       	ldd	r7, Y+13	; 0x0d
    1e0c:	8c 84       	ldd	r8, Y+12	; 0x0c
    1e0e:	9b 84       	ldd	r9, Y+11	; 0x0b
    1e10:	aa 84       	ldd	r10, Y+10	; 0x0a
    1e12:	b9 84       	ldd	r11, Y+9	; 0x09
    1e14:	c8 84       	ldd	r12, Y+8	; 0x08
    1e16:	df 80       	ldd	r13, Y+7	; 0x07
    1e18:	ee 80       	ldd	r14, Y+6	; 0x06
    1e1a:	fd 80       	ldd	r15, Y+5	; 0x05
    1e1c:	0c 81       	ldd	r16, Y+4	; 0x04
    1e1e:	1b 81       	ldd	r17, Y+3	; 0x03
    1e20:	aa 81       	ldd	r26, Y+2	; 0x02
    1e22:	b9 81       	ldd	r27, Y+1	; 0x01
    1e24:	ce 0f       	add	r28, r30
    1e26:	d1 1d       	adc	r29, r1
    1e28:	0f b6       	in	r0, 0x3f	; 63
    1e2a:	f8 94       	cli
    1e2c:	de bf       	out	0x3e, r29	; 62
    1e2e:	0f be       	out	0x3f, r0	; 63
    1e30:	cd bf       	out	0x3d, r28	; 61
    1e32:	ed 01       	movw	r28, r26
    1e34:	08 95       	ret

00001e36 <_exit>:
    1e36:	f8 94       	cli

00001e38 <__stop_program>:
    1e38:	ff cf       	rjmp	.-2      	; 0x1e38 <__stop_program>
